

Microchip MPLAB XC8 Assembler V2.45 build 20230818022343 
                                                                                               Thu Jun 27 05:48:31 2024

Microchip MPLAB XC8 C Compiler v2.45 (Free license) build 20230818022343 Og1 
     1                           	processor	18F46K20
     2                           	fnconf	rparam,??,?,0
     3                           	pagewidth 120
     4                           	opt	flic
     5                           	psect	idataCOMRAM,global,class=CODE,delta=1,noexec
     6                           	psect	idataBANK0,global,class=CODE,delta=1,noexec
     7                           	psect	smallconst,global,reloc=2,class=SMALLCONST,delta=1,noexec
     8                           	psect	cinit,global,reloc=2,class=CODE,delta=1
     9                           	psect	bssCOMRAM,global,class=COMRAM,space=1,delta=1,lowdata,noexec
    10                           	psect	dataCOMRAM,global,class=COMRAM,space=1,delta=1,lowdata,noexec
    11                           	psect	bssBANK0,global,class=BANK0,space=1,delta=1,lowdata,noexec
    12                           	psect	dataBANK0,global,class=BANK0,space=1,delta=1,lowdata,noexec
    13                           	psect	cstackBANK0,global,class=BANK0,space=1,delta=1,lowdata,noexec
    14                           	psect	cstackCOMRAM,global,class=COMRAM,space=1,delta=1,lowdata,noexec
    15                           	psect	text0,global,reloc=2,class=CODE,delta=1
    16                           	psect	text1,global,reloc=2,class=CODE,delta=1
    17                           	psect	text2,global,reloc=2,class=CODE,delta=1
    18                           	psect	text3,global,reloc=2,class=CODE,delta=1
    19                           	psect	text4,global,reloc=2,class=CODE,delta=1,inline
    20                           	psect	text5,global,reloc=2,class=CODE,delta=1,inline
    21                           	psect	text6,global,reloc=2,class=CODE,delta=1,inline
    22                           	psect	text7,global,reloc=2,class=CODE,delta=1
    23                           	psect	text8,global,reloc=2,class=CODE,delta=1
    24                           	psect	text9,global,reloc=2,class=CODE,delta=1
    25                           	psect	text10,global,reloc=2,class=CODE,delta=1
    26                           	psect	text11,global,reloc=2,class=CODE,delta=1
    27                           	psect	text12,global,reloc=2,class=CODE,delta=1
    28                           	psect	text13,global,reloc=2,class=CODE,delta=1
    29                           	psect	text14,global,reloc=2,class=CODE,delta=1
    30                           	psect	intcode,global,reloc=2,class=CODE,delta=1
    31                           	psect	text16,global,reloc=2,class=CODE,delta=1
    32                           	psect	text17,global,reloc=2,class=CODE,delta=1
    33                           	psect	text18,global,reloc=2,class=CODE,delta=1
    34                           	psect	text19,global,reloc=2,class=CODE,delta=1
    35                           	psect	text20,global,reloc=2,class=CODE,delta=1
    36                           	psect	text21,global,reloc=2,class=CODE,delta=1
    37                           	psect	text22,global,reloc=2,class=CODE,delta=1
    38                           	psect	text23,global,reloc=2,class=CODE,delta=1
    39                           	psect	text24,global,reloc=2,class=CODE,delta=1
    40                           	psect	text25,global,reloc=2,class=CODE,delta=1
    41                           	psect	text26,global,reloc=2,class=CODE,delta=1
    42                           	psect	text27,global,reloc=2,class=CODE,delta=1
    43                           	psect	text28,global,reloc=2,class=CODE,delta=1
    44                           	psect	text29,global,reloc=2,class=CODE,delta=1
    45                           	psect	text30,global,reloc=2,class=CODE,delta=1
    46                           	psect	text31,global,reloc=2,class=CODE,delta=1
    47                           	psect	text32,global,reloc=2,class=CODE,delta=1
    48                           	psect	text33,global,reloc=2,class=CODE,delta=1
    49                           	psect	text34,global,reloc=2,class=CODE,delta=1
    50                           	psect	text35,global,reloc=2,class=CODE,delta=1
    51                           	psect	intsave_regs,global,class=BIGRAM,space=1,delta=1,noexec
    52                           	psect	text36,global,reloc=2,class=CODE,delta=1
    53                           	psect	rparam,global,class=COMRAM,space=1,delta=1,noexec
    54                           	psect	temp,global,ovrld,common,class=COMRAM,space=1,delta=1
    55                           	psect	config,global,abs,ovrld,class=CONFIG,space=4,delta=1,noexec
    56   000000                     
    57                           ; Generated 21/07/2023 GMT
    58                           ; 
    59                           ; Copyright © 2023, Microchip Technology Inc. and its subsidiaries ("Microchip")
    60                           ; All rights reserved.
    61                           ; 
    62                           ; This software is developed by Microchip Technology Inc. and its subsidiaries ("Microch
      +                          ip").
    63                           ; 
    64                           ; Redistribution and use in source and binary forms, with or without modification, are
    65                           ; permitted provided that the following conditions are met:
    66                           ; 
    67                           ;     1. Redistributions of source code must retain the above copyright notice, this lis
      +                          t of
    68                           ;        conditions and the following disclaimer.
    69                           ; 
    70                           ;     2. Redistributions in binary form must reproduce the above copyright notice, this 
      +                          list
    71                           ;        of conditions and the following disclaimer in the documentation and/or other
    72                           ;        materials provided with the distribution. Publication is not required when
    73                           ;        this file is used in an embedded application.
    74                           ; 
    75                           ;     3. Microchip's name may not be used to endorse or promote products derived from th
      +                          is
    76                           ;        software without specific prior written permission.
    77                           ; 
    78                           ; THIS SOFTWARE IS PROVIDED BY MICROCHIP "AS IS" AND ANY EXPRESS OR IMPLIED WARRANTIES,
    79                           ; INCLUDING, BUT NOT LIMITED TO, THE IMPLIED WARRANTIES OF MERCHANTABILITY AND FITNESS F
      +                          OR
    80                           ; PURPOSE ARE DISCLAIMED.  IN NO EVENT SHALL MICROCHIP BE LIABLE FOR ANY DIRECT, INDIREC
      +                          T,
    81                           ; INCIDENTAL, SPECIAL, EXEMPLARY, OR CONSEQUENTIAL DAMAGES (INCLUDING BUT NOT LIMITED TO
    82                           ; PROCUREMENT OF SUBSTITUTE GOODS OR SERVICES; LOSS OF USE, DATA OR PROFITS; OR BUSINESS
    83                           ; INTERRUPTION) HOWSOEVER CAUSED AND ON ANY THEORY OF LIABILITY, WHETHER IN CONTRACT, ST
      +                          RICT
    84                           ; LIABILITY, OR TORT (INCLUDING NEGLIGENCE OR OTHERWISE) ARISING IN ANY WAY OUT OF THE U
      +                          SE OF
    85                           ; THIS SOFTWARE, EVEN IF ADVISED OF THE POSSIBILITY OF SUCH DAMAGE.
    86                           ; 
    87                           ; 
    88                           ; Code-generator required, PIC18F46K20 Definitions
    89                           ; 
    90                           ; SFR Addresses
    91   000000                     
    92                           	psect	idataCOMRAM
    93   0018A4                     __pidataCOMRAM:
    94                           	callstack 0
    95                           
    96                           ;initializer for _LAT_REGESTERS
    97   0018A4  89                 	db	137
    98   0018A5  0F                 	db	15
    99   0018A6  8A                 	db	138
   100   0018A7  0F                 	db	15
   101   0018A8  8B                 	db	139
   102   0018A9  0F                 	db	15
   103   0018AA  8C                 	db	140
   104   0018AB  0F                 	db	15
   105   0018AC  8D                 	db	141
   106   0018AD  0F                 	db	15
   107                           
   108                           ;initializer for _motor2
   109   0018AE  13                 	db	19
   110   0018AF  1B                 	db	27
   111   0018B0  00                 	db	0
   112                           
   113                           ;initializer for _motor1
   114   0018B1  03                 	db	3
   115   0018B2  0B                 	db	11
   116   0018B3  00                 	db	0
   117                           
   118                           ;initializer for _btn2
   119   0018B4  BB                 	db	187
   120   0018B5  00                 	db	0
   121   0018B6  00                 	db	0
   122                           
   123                           ;initializer for _btn1
   124   0018B7  BA                 	db	186
   125   0018B8  00                 	db	0
   126   0018B9  00                 	db	0
   127                           
   128                           ;initializer for _RB7_FLAG
   129   0018BA  01                 	db	1
   130                           
   131                           ;initializer for _RB6_FLAG
   132   0018BB  01                 	db	1
   133                           
   134                           ;initializer for _RB5_FLAG
   135   0018BC  01                 	db	1
   136                           
   137                           ;initializer for _RB4_FLAG
   138   0018BD  01                 	db	1
   139                           
   140                           ;initializer for _LED4
   141   0018BE  32                 	db	50
   142                           
   143                           ;initializer for _LED3
   144   0018BF  22                 	db	34
   145                           
   146                           ;initializer for _LED2
   147   0018C0  12                 	db	18
   148                           
   149                           ;initializer for _LED1
   150   0018C1  02                 	db	2
   151                           
   152                           	psect	idataBANK0
   153   001764                     __pidataBANK0:
   154                           	callstack 0
   155                           
   156                           ;initializer for _PORT_REGESTERS
   157   001764  80                 	db	128
   158   001765  0F                 	db	15
   159   001766  81                 	db	129
   160   001767  0F                 	db	15
   161   001768  82                 	db	130
   162   001769  0F                 	db	15
   163   00176A  83                 	db	131
   164   00176B  0F                 	db	15
   165   00176C  84                 	db	132
   166   00176D  0F                 	db	15
   167                           
   168                           ;initializer for _TRIS_REGESTERS
   169   00176E  92                 	db	146
   170   00176F  0F                 	db	15
   171   001770  93                 	db	147
   172   001771  0F                 	db	15
   173   001772  94                 	db	148
   174   001773  0F                 	db	15
   175   001774  95                 	db	149
   176   001775  0F                 	db	15
   177   001776  96                 	db	150
   178   001777  0F                 	db	15
   179                           
   180                           ;initializer for _lcd2
   181   001778  32                 	db	50
   182   001779  3A                 	db	58
   183   00177A  03                 	db	3
   184   00177B  0B                 	db	11
   185   00177C  13                 	db	19
   186   00177D  1B                 	db	27
   187   00177E  23                 	db	35
   188   00177F  2B                 	db	43
   189   001780  33                 	db	51
   190   001781  3B                 	db	59
   191                           
   192                           ;initializer for _keypad_1
   193   001782  02                 	db	2
   194   001783  0A                 	db	10
   195   001784  12                 	db	18
   196   001785  1A                 	db	26
   197   001786  A2                 	db	162
   198   001787  AA                 	db	170
   199   001788  B2                 	db	178
   200   001789  BA                 	db	186
   201                           
   202                           ;initializer for _lcd1
   203   00178A  03                 	db	3
   204   00178B  0B                 	db	11
   205   00178C  13                 	db	19
   206   00178D  1B                 	db	27
   207   00178E  23                 	db	35
   208   00178F  2B                 	db	43
   209                           
   210                           ;initializer for _ccp2
   211   001790  01                 	db	1
   212   001791  00                 	db	0
   213   001792  05                 	db	5
   214   001793  8A                 	db	138
   215   001794  00                 	db	0
   216   001795  00                 	db	0
   217   001796  00                 	db	0
   218   001797  5E                 	db	low _APP_CCP2_ISR
   219   001798  19                 	db	high _APP_CCP2_ISR
   220                           
   221                           ;initializer for _timer3
   222   001799  5C                 	db	low _APP_TIMER3_ISR
   223   00179A  19                 	db	high _APP_TIMER3_ISR
   224   00179B  00                 	db	0
   225   00179C  0000               	dw	0
   226   00179E  00                 	db	0
   227                           
   228                           	psect	smallconst
   229   001000                     __psmallconst:
   230                           	callstack 0
   231   001000  00                 	db	0
   232   001001                     _buttons_values:
   233                           	callstack 0
   234   001001  37                 	db	55
   235   001002  38                 	db	56
   236   001003  39                 	db	57
   237   001004  2F                 	db	47
   238   001005  34                 	db	52
   239   001006  35                 	db	53
   240   001007  36                 	db	54
   241   001008  78                 	db	120
   242   001009  31                 	db	49
   243   00100A  32                 	db	50
   244   00100B  33                 	db	51
   245   00100C  2D                 	db	45
   246   00100D  63                 	db	99
   247   00100E  30                 	db	48
   248   00100F  3D                 	db	61
   249   001010  2B                 	db	43
   250   001011                     __end_of_buttons_values:
   251                           	callstack 0
   252   000000                     _TMR3L	set	4018
   253   000000                     _TMR3H	set	4019
   254   000000                     _TMR1L	set	4046
   255   000000                     _TMR1H	set	4047
   256   000000                     _TMR0L	set	4054
   257   000000                     _TMR0H	set	4055
   258   000000                     _INTCON2bits	set	4081
   259   000000                     _EECON2	set	4007
   260   000000                     _CCPR2H	set	4028
   261   000000                     _CCPR2L	set	4027
   262   000000                     _CCPR1H	set	4031
   263   000000                     _CCPR1L	set	4030
   264   000000                     _ADCON1bits	set	4033
   265   000000                     _TRISD	set	3989
   266   000000                     _TRISC	set	3988
   267   000000                     _TRISB	set	3987
   268   000000                     _TRISE	set	3990
   269   000000                     _PORTBbits	set	3969
   270   000000                     _IOCBbits	set	3965
   271   000000                     _ANSEL	set	3966
   272   000000                     _PIE1bits	set	3997
   273   000000                     _ADCON2bits	set	4032
   274   000000                     _ADCON0bits	set	4034
   275   000000                     _TRISA	set	3986
   276   000000                     _T2CONbits	set	4042
   277   000000                     _T1CONbits	set	4045
   278   000000                     _ADRESH	set	4036
   279   000000                     _ADRESL	set	4035
   280   000000                     _RCONbits	set	4048
   281   000000                     _INTCONbits	set	4082
   282   000000                     _PIE2bits	set	4000
   283   000000                     _CCP2CONbits	set	4026
   284   000000                     _CCP1CONbits	set	4029
   285   000000                     _PIR1bits	set	3998
   286   000000                     _T0CONbits	set	4053
   287   000000                     _INTCON3bits	set	4080
   288   000000                     _ANSELH	set	3967
   289   000000                     _LATA	set	3977
   290   000000                     _PORTE	set	3972
   291   000000                     _PORTD	set	3971
   292   000000                     _PORTC	set	3970
   293   000000                     _PORTB	set	3969
   294   000000                     _PORTA	set	3968
   295   000000                     _EECON1bits	set	4006
   296   000000                     _EEDATA	set	4008
   297   000000                     _EEADR	set	4009
   298   000000                     _EEADRH	set	4010
   299   000000                     _T3CONbits	set	4017
   300   000000                     _PIR2bits	set	4001
   301   000000                     _LATE	set	3981
   302   000000                     _LATD	set	3980
   303   000000                     _LATC	set	3979
   304   000000                     _LATB	set	3978
   305   000000                     _TMR2	set	4044
   306   001011                     STR_1:
   307   001011  25                 	db	37
   308   001012  69                 	db	105	;'i'
   309   001013  00                 	db	0
   310   001014  00                 	db	0	; dummy byte at the end
   311   000000                     
   312                           ; #config settings
   313                           
   314                           	psect	cinit
   315   001664                     __pcinit:
   316                           	callstack 0
   317   001664                     start_initialization:
   318                           	callstack 0
   319   001664                     __initialization:
   320                           	callstack 0
   321                           
   322                           ; Initialize objects allocated to BANK0 (59 bytes)
   323                           ; load TBLPTR registers with __pidataBANK0
   324   001664  0E64               	movlw	low __pidataBANK0
   325   001666  6EF6               	movwf	tblptrl,c
   326   001668  0E17               	movlw	high __pidataBANK0
   327   00166A  6EF7               	movwf	tblptrh,c
   328   00166C  0E00               	movlw	low (__pidataBANK0 shr (0+16))
   329   00166E  6EF8               	movwf	tblptru,c
   330   001670  EE00  F060         	lfsr	0,__pdataBANK0
   331   001674  EE10 F03B          	lfsr	1,59
   332   001678                     copy_data0:
   333   001678  0009               	tblrd		*+
   334   00167A  CFF5 FFEE          	movff	tablat,postinc0
   335   00167E  50E5               	movf	postdec1,w,c
   336   001680  50E1               	movf	fsr1l,w,c
   337   001682  E1FA               	bnz	copy_data0
   338                           
   339                           ; Initialize objects allocated to COMRAM (30 bytes)
   340                           ; load TBLPTR registers with __pidataCOMRAM
   341   001684  0EA4               	movlw	low __pidataCOMRAM
   342   001686  6EF6               	movwf	tblptrl,c
   343   001688  0E18               	movlw	high __pidataCOMRAM
   344   00168A  6EF7               	movwf	tblptrh,c
   345   00168C  0E00               	movlw	low (__pidataCOMRAM shr (0+16))
   346   00168E  6EF8               	movwf	tblptru,c
   347   001690  EE00  F032         	lfsr	0,__pdataCOMRAM
   348   001694  EE10 F01E          	lfsr	1,30
   349   001698                     copy_data1:
   350   001698  0009               	tblrd		*+
   351   00169A  CFF5 FFEE          	movff	tablat,postinc0
   352   00169E  50E5               	movf	postdec1,w,c
   353   0016A0  50E1               	movf	fsr1l,w,c
   354   0016A2  E1FA               	bnz	copy_data1
   355                           
   356                           ; Clear objects allocated to BANK0 (6 bytes)
   357   0016A4  0100               	movlb	0
   358   0016A6  6BA0               	clrf	(__pbssBANK0+5)& (0+255),b
   359   0016A8  6B9F               	clrf	(__pbssBANK0+4)& (0+255),b
   360   0016AA  6B9E               	clrf	(__pbssBANK0+3)& (0+255),b
   361   0016AC  6B9D               	clrf	(__pbssBANK0+2)& (0+255),b
   362   0016AE  6B9C               	clrf	(__pbssBANK0+1)& (0+255),b
   363   0016B0  6B9B               	clrf	__pbssBANK0& (0+255),b
   364                           
   365                           ; Clear objects allocated to COMRAM (49 bytes)
   366   0016B2  EE00  F001         	lfsr	0,__pbssCOMRAM
   367   0016B6  0E31               	movlw	49
   368   0016B8                     clear_0:
   369   0016B8  6AEE               	clrf	postinc0,c
   370   0016BA  06E8               	decf	wreg,f,c
   371   0016BC  E1FD               	bnz	clear_0
   372   0016BE                     end_of_initialization:
   373                           	callstack 0
   374   0016BE                     __end_of__initialization:
   375                           	callstack 0
   376   0016BE  905C               	bcf	int$flags,0,c	;clear compiler interrupt flag (level 1)
   377   0016C0  925C               	bcf	int$flags,1,c	;clear compiler interrupt flag (level 2)
   378   0016C2  0100               	movlb	0
   379   0016C4  EF61  F00C         	goto	_main	;jump to C main() function
   380                           
   381                           	psect	bssCOMRAM
   382   000001                     __pbssCOMRAM:
   383                           	callstack 0
   384   000001                     _TIMER3_INTERRUPT_HANDLER_CALL_BACK:
   385                           	callstack 0
   386   000001                     	ds	2
   387   000003                     _timer3_preload:
   388                           	callstack 0
   389   000003                     	ds	2
   390   000005                     _TIMER2_INTERRUPT_HANDLER_CALL_BACK:
   391                           	callstack 0
   392   000005                     	ds	2
   393   000007                     _TIMER1_INTERRUPT_HANDLER_CALL_BACK:
   394                           	callstack 0
   395   000007                     	ds	2
   396   000009                     _timer1_preload:
   397                           	callstack 0
   398   000009                     	ds	2
   399   00000B                     _TIMER0_INTERRUPT_HANDLER_CALL_BACK:
   400                           	callstack 0
   401   00000B                     	ds	2
   402   00000D                     _timer0_preload:
   403                           	callstack 0
   404   00000D                     	ds	2
   405   00000F                     _RB7_INTERRUPT_HANDLER_CALL_BACK_low:
   406                           	callstack 0
   407   00000F                     	ds	2
   408   000011                     _RB7_INTERRUPT_HANDLER_CALL_BACK_high:
   409                           	callstack 0
   410   000011                     	ds	2
   411   000013                     _RB6_INTERRUPT_HANDLER_CALL_BACK_low:
   412                           	callstack 0
   413   000013                     	ds	2
   414   000015                     _RB6_INTERRUPT_HANDLER_CALL_BACK_high:
   415                           	callstack 0
   416   000015                     	ds	2
   417   000017                     _RB5_INTERRUPT_HANDLER_CALL_BACK_low:
   418                           	callstack 0
   419   000017                     	ds	2
   420   000019                     _RB5_INTERRUPT_HANDLER_CALL_BACK_high:
   421                           	callstack 0
   422   000019                     	ds	2
   423   00001B                     _RB4_INTERRUPT_HANDLER_CALL_BACK_low:
   424                           	callstack 0
   425   00001B                     	ds	2
   426   00001D                     _RB4_INTERRUPT_HANDLER_CALL_BACK_high:
   427                           	callstack 0
   428   00001D                     	ds	2
   429   00001F                     _INT2_INTERRUPT_HANDLER_CALL_BACK:
   430                           	callstack 0
   431   00001F                     	ds	2
   432   000021                     _INT1_INTERRUPT_HANDLER_CALL_BACK:
   433                           	callstack 0
   434   000021                     	ds	2
   435   000023                     _INT0_INTERRUPT_HANDLER_CALL_BACK:
   436                           	callstack 0
   437   000023                     	ds	2
   438   000025                     CCP_Compare_Mode_Set_Value@F3548:
   439                           	callstack 0
   440   000025                     	ds	2
   441   000027                     _CCP2_InterruptHandler:
   442                           	callstack 0
   443   000027                     	ds	2
   444   000029                     _CCP1_InterruptHandler:
   445                           	callstack 0
   446   000029                     	ds	2
   447   00002B                     _ADC_INTERRUPT_HANDLER_CALL_BACK:
   448                           	callstack 0
   449   00002B                     	ds	2
   450   00002D                     _timer2_preload:
   451                           	callstack 0
   452   00002D                     	ds	1
   453   00002E                     led_toggle@F3325:
   454                           	callstack 0
   455   00002E                     	ds	1
   456   00002F                     led_OFF@F3320:
   457                           	callstack 0
   458   00002F                     	ds	1
   459   000030                     led_ON@F3315:
   460                           	callstack 0
   461   000030                     	ds	1
   462   000031                     led_initialize@F3310:
   463                           	callstack 0
   464   000031                     	ds	1
   465                           
   466                           	psect	dataCOMRAM
   467   000032                     __pdataCOMRAM:
   468                           	callstack 0
   469   000032                     _LAT_REGESTERS:
   470                           	callstack 0
   471   000032                     	ds	10
   472   00003C                     _motor2:
   473                           	callstack 0
   474   00003C                     	ds	3
   475   00003F                     _motor1:
   476                           	callstack 0
   477   00003F                     	ds	3
   478   000042                     _btn2:
   479                           	callstack 0
   480   000042                     	ds	3
   481   000045                     _btn1:
   482                           	callstack 0
   483   000045                     	ds	3
   484   000048                     _RB7_FLAG:
   485                           	callstack 0
   486   000048                     	ds	1
   487   000049                     _RB6_FLAG:
   488                           	callstack 0
   489   000049                     	ds	1
   490   00004A                     _RB5_FLAG:
   491                           	callstack 0
   492   00004A                     	ds	1
   493   00004B                     _RB4_FLAG:
   494                           	callstack 0
   495   00004B                     	ds	1
   496   00004C                     _LED4:
   497                           	callstack 0
   498   00004C                     	ds	1
   499   00004D                     _LED3:
   500                           	callstack 0
   501   00004D                     	ds	1
   502   00004E                     _LED2:
   503                           	callstack 0
   504   00004E                     	ds	1
   505   00004F                     _LED1:
   506                           	callstack 0
   507   00004F                     	ds	1
   508                           
   509                           	psect	bssBANK0
   510   00009B                     __pbssBANK0:
   511                           	callstack 0
   512   00009B                     	ds	6
   513                           
   514                           	psect	dataBANK0
   515   000060                     __pdataBANK0:
   516                           	callstack 0
   517   000060                     _PORT_REGESTERS:
   518                           	callstack 0
   519   000060                     	ds	10
   520   00006A                     _TRIS_REGESTERS:
   521                           	callstack 0
   522   00006A                     	ds	10
   523   000074                     _lcd2:
   524                           	callstack 0
   525   000074                     	ds	10
   526   00007E                     _keypad_1:
   527                           	callstack 0
   528   00007E                     	ds	8
   529   000086                     _lcd1:
   530                           	callstack 0
   531   000086                     	ds	6
   532   00008C                     _ccp2:
   533                           	callstack 0
   534   00008C                     	ds	9
   535   000095                     _timer3:
   536                           	callstack 0
   537   000095                     	ds	6
   538                           
   539                           	psect	cstackBANK0
   540   0000A1                     __pcstackBANK0:
   541                           	callstack 0
   542   0000A1                     CCP_Init@_ccp_obj:
   543                           	callstack 0
   544                           
   545                           ; 1 bytes @ 0x0
   546   0000A1                     	ds	1
   547   0000A2                     
   548                           ; 1 bytes @ 0x1
   549   0000A2                     	ds	1
   550                           
   551                           	psect	cstackCOMRAM
   552   000050                     __pcstackCOMRAM:
   553                           	callstack 0
   554   000050                     RB4_ISR_high@dummy:
   555                           	callstack 0
   556   000050                     RB4_ISR_low@dummy:
   557                           	callstack 0
   558   000050                     RB5_ISR_high@dummy:
   559                           	callstack 0
   560   000050                     RB5_ISR_low@dummy:
   561                           	callstack 0
   562   000050                     RB6_ISR_high@dummy:
   563                           	callstack 0
   564   000050                     RB6_ISR_low@dummy:
   565                           	callstack 0
   566   000050                     RB7_ISR_high@dummy:
   567                           	callstack 0
   568   000050                     RB7_ISR_low@dummy:
   569                           	callstack 0
   570                           
   571                           ; 1 bytes @ 0x0
   572   000050                     	ds	1
   573   000051                     ??__ISR:
   574                           
   575                           ; 1 bytes @ 0x1
   576   000051                     	ds	2
   577   000053                     CCP_Interrupt_Config@_ccp_obj:
   578                           	callstack 0
   579   000053                     CCP_Mode_Timer_Select@_ccp_obj:
   580                           	callstack 0
   581   000053                     gpio_pin_direction_initialize@pin:
   582                           	callstack 0
   583   000053                     gpio_pin_write_logic@pin:
   584                           	callstack 0
   585   000053                     TIMER3_Set_Prescaler@my_TIMER3:
   586                           	callstack 0
   587   000053                     TIMER3_Mode_Select@my_TIMER3:
   588                           	callstack 0
   589   000053                     TIMER3_REGISTER_SIZE_Select@my_TIMER3:
   590                           	callstack 0
   591                           
   592                           ; 1 bytes @ 0x3
   593   000053                     	ds	1
   594   000054                     ??_gpio_pin_direction_initialize:
   595   000054                     ??_TIMER3_Set_Prescaler:
   596   000054                     gpio_pin_write_logic@logic:
   597                           	callstack 0
   598                           
   599                           ; 1 bytes @ 0x4
   600   000054                     	ds	1
   601   000055                     ??_gpio_pin_write_logic:
   602   000055                     CCP_Capture_Mode_Config@_ccp_obj:
   603                           	callstack 0
   604   000055                     CCP_Compare_Mode_Config@_ccp_obj:
   605                           	callstack 0
   606   000055                     TIMER3_init@my_TIMER3:
   607                           	callstack 0
   608                           
   609                           ; 1 bytes @ 0x5
   610   000055                     	ds	1
   611   000056                     ??_CCP_Capture_Mode_Config:
   612   000056                     ??_CCP_Compare_Mode_Config:
   613   000056                     ??_TIMER3_init:
   614                           
   615                           ; 1 bytes @ 0x6
   616   000056                     	ds	2
   617   000058                     CCP_Capture_Mode_Config@ret:
   618                           	callstack 0
   619                           
   620                           ; 1 bytes @ 0x8
   621   000058                     	ds	1
   622   000059                     gpio_pin_direction_initialize@RET:
   623                           	callstack 0
   624                           
   625                           ; 1 bytes @ 0x9
   626   000059                     	ds	1
   627   00005A                     gpio_pin_initialize@pin:
   628                           	callstack 0
   629                           
   630                           ; 1 bytes @ 0xA
   631   00005A                     	ds	1
   632   00005B                     gpio_pin_initialize@RET:
   633                           	callstack 0
   634                           
   635                           ; 1 bytes @ 0xB
   636   00005B                     	ds	1
   637   00005C                     
   638                           ; 1 bytes @ 0xC
   639 ;;
   640 ;;Main: autosize = 0, tempsize = 0, incstack = 0, save=0
   641 ;;
   642 ;; *************** function _main *****************
   643 ;; Defined at:
   644 ;;		line 47 in file "application.c"
   645 ;; Parameters:    Size  Location     Type
   646 ;;		None
   647 ;; Auto vars:     Size  Location     Type
   648 ;;		None
   649 ;; Return value:  Size  Location     Type
   650 ;;                  2  1464[None  ] int 
   651 ;; Registers used:
   652 ;;		wreg, fsr2l, fsr2h, status,2, status,0, prodl, prodh, cstack
   653 ;; Tracked objects:
   654 ;;		On entry : 0/0
   655 ;;		On exit  : 0/0
   656 ;;		Unchanged: 0/0
   657 ;; Data sizes:     COMRAM   BANK0   BANK1   BANK2   BANK3   BANK4   BANK5   BANK6   BANK7   BANK8   BANK9  BANK10  BANK1
      +1  BANK12  BANK13  BANK14  BANK15
   658 ;;      Params:         0       0       0       0       0       0       0       0       0       0       0       0       
      +0       0       0       0       0
   659 ;;      Locals:         0       0       0       0       0       0       0       0       0       0       0       0       
      +0       0       0       0       0
   660 ;;      Temps:          0       0       0       0       0       0       0       0       0       0       0       0       
      +0       0       0       0       0
   661 ;;      Totals:         0       0       0       0       0       0       0       0       0       0       0       0       
      +0       0       0       0       0
   662 ;;Total ram usage:        0 bytes
   663 ;; Hardware stack levels required when called: 6
   664 ;; This function calls:
   665 ;;		_CCP_Init
   666 ;;		_TIMER3_init
   667 ;;		_application_initialize
   668 ;; This function is called by:
   669 ;;		Startup code after reset
   670 ;; This function uses a non-reentrant model
   671 ;;
   672                           
   673                           	psect	text0
   674   0018C2                     __ptext0:
   675                           	callstack 0
   676   0018C2                     _main:
   677                           	callstack 25
   678   0018C2                     
   679                           ;application.c: 49:         application_initialize();
   680   0018C2  ECA0  F00C         	call	_application_initialize	;wreg free
   681   0018C6                     
   682                           ;application.c: 50:         CCP_Init(&ccp2);
   683   0018C6  0E8C               	movlw	low _ccp2
   684   0018C8  0100               	movlb	0	; () banked
   685   0018CA  6FA1               	movwf	CCP_Init@_ccp_obj& (0+255),b
   686   0018CC  EC64  F00A         	call	_CCP_Init	;wreg free
   687   0018D0                     
   688                           ;application.c: 51:         TIMER3_init(&timer3);
   689   0018D0  0E95               	movlw	low _timer3
   690   0018D2  6E55               	movwf	TIMER3_init@my_TIMER3^0,c
   691   0018D4  ECBA  F00A         	call	_TIMER3_init	;wreg free
   692   0018D8                     l1465:
   693   0018D8  EF6C  F00C         	goto	l1465
   694   0018DC  EFEF  F001         	goto	start
   695   0018E0                     __end_of_main:
   696                           	callstack 0
   697                           
   698 ;; *************** function _application_initialize *****************
   699 ;; Defined at:
   700 ;;		line 57 in file "application.c"
   701 ;; Parameters:    Size  Location     Type
   702 ;;		None
   703 ;; Auto vars:     Size  Location     Type
   704 ;;		None
   705 ;; Return value:  Size  Location     Type
   706 ;;                  1    wreg      void 
   707 ;; Registers used:
   708 ;;		cstack
   709 ;; Tracked objects:
   710 ;;		On entry : 0/0
   711 ;;		On exit  : 0/0
   712 ;;		Unchanged: 0/0
   713 ;; Data sizes:     COMRAM   BANK0   BANK1   BANK2   BANK3   BANK4   BANK5   BANK6   BANK7   BANK8   BANK9  BANK10  BANK1
      +1  BANK12  BANK13  BANK14  BANK15
   714 ;;      Params:         0       0       0       0       0       0       0       0       0       0       0       0       
      +0       0       0       0       0
   715 ;;      Locals:         0       0       0       0       0       0       0       0       0       0       0       0       
      +0       0       0       0       0
   716 ;;      Temps:          0       0       0       0       0       0       0       0       0       0       0       0       
      +0       0       0       0       0
   717 ;;      Totals:         0       0       0       0       0       0       0       0       0       0       0       0       
      +0       0       0       0       0
   718 ;;Total ram usage:        0 bytes
   719 ;; Hardware stack levels used: 1
   720 ;; Hardware stack levels required when called: 4
   721 ;; This function calls:
   722 ;;		_Ecu_initialize
   723 ;; This function is called by:
   724 ;;		_main
   725 ;; This function uses a non-reentrant model
   726 ;;
   727                           
   728                           	psect	text1
   729   001940                     __ptext1:
   730                           	callstack 0
   731   001940                     _application_initialize:
   732                           	callstack 26
   733   001940                     
   734                           ;application.c: 59:        Ecu_initialize();
   735   001940  ECAD  F00C         	call	_Ecu_initialize	;wreg free
   736   001944  0012               	return		;funcret
   737   001946                     __end_of_application_initialize:
   738                           	callstack 0
   739                           
   740 ;; *************** function _Ecu_initialize *****************
   741 ;; Defined at:
   742 ;;		line 217 in file "ECU_layer/Ecu_initialize.c"
   743 ;; Parameters:    Size  Location     Type
   744 ;;		None
   745 ;; Auto vars:     Size  Location     Type
   746 ;;		None
   747 ;; Return value:  Size  Location     Type
   748 ;;                  1    wreg      void 
   749 ;; Registers used:
   750 ;;		None
   751 ;; Tracked objects:
   752 ;;		On entry : 0/0
   753 ;;		On exit  : 0/0
   754 ;;		Unchanged: 0/0
   755 ;; Data sizes:     COMRAM   BANK0   BANK1   BANK2   BANK3   BANK4   BANK5   BANK6   BANK7   BANK8   BANK9  BANK10  BANK1
      +1  BANK12  BANK13  BANK14  BANK15
   756 ;;      Params:         0       0       0       0       0       0       0       0       0       0       0       0       
      +0       0       0       0       0
   757 ;;      Locals:         0       0       0       0       0       0       0       0       0       0       0       0       
      +0       0       0       0       0
   758 ;;      Temps:          0       0       0       0       0       0       0       0       0       0       0       0       
      +0       0       0       0       0
   759 ;;      Totals:         0       0       0       0       0       0       0       0       0       0       0       0       
      +0       0       0       0       0
   760 ;;Total ram usage:        0 bytes
   761 ;; Hardware stack levels used: 1
   762 ;; Hardware stack levels required when called: 3
   763 ;; This function calls:
   764 ;;		Nothing
   765 ;; This function is called by:
   766 ;;		_application_initialize
   767 ;; This function uses a non-reentrant model
   768 ;;
   769                           
   770                           	psect	text2
   771   00195A                     __ptext2:
   772                           	callstack 0
   773   00195A                     _Ecu_initialize:
   774                           	callstack 26
   775   00195A  0012               	return		;funcret
   776   00195C                     __end_of_Ecu_initialize:
   777                           	callstack 0
   778                           
   779 ;; *************** function _TIMER3_init *****************
   780 ;; Defined at:
   781 ;;		line 17 in file "MCAL_layer/TIMER3/TIMER3.c"
   782 ;; Parameters:    Size  Location     Type
   783 ;;  my_TIMER3       1    5[COMRAM] PTR const struct .
   784 ;;		 -> timer3(6), 
   785 ;; Auto vars:     Size  Location     Type
   786 ;;  RET             1    0        unsigned char 
   787 ;; Return value:  Size  Location     Type
   788 ;;                  1    wreg      unsigned char 
   789 ;; Registers used:
   790 ;;		wreg, fsr2l, fsr2h, status,2, status,0, cstack
   791 ;; Tracked objects:
   792 ;;		On entry : 0/0
   793 ;;		On exit  : 0/0
   794 ;;		Unchanged: 0/0
   795 ;; Data sizes:     COMRAM   BANK0   BANK1   BANK2   BANK3   BANK4   BANK5   BANK6   BANK7   BANK8   BANK9  BANK10  BANK1
      +1  BANK12  BANK13  BANK14  BANK15
   796 ;;      Params:         1       0       0       0       0       0       0       0       0       0       0       0       
      +0       0       0       0       0
   797 ;;      Locals:         0       0       0       0       0       0       0       0       0       0       0       0       
      +0       0       0       0       0
   798 ;;      Temps:          2       0       0       0       0       0       0       0       0       0       0       0       
      +0       0       0       0       0
   799 ;;      Totals:         3       0       0       0       0       0       0       0       0       0       0       0       
      +0       0       0       0       0
   800 ;;Total ram usage:        3 bytes
   801 ;; Hardware stack levels used: 1
   802 ;; Hardware stack levels required when called: 4
   803 ;; This function calls:
   804 ;;		_TIMER3_Mode_Select
   805 ;;		_TIMER3_REGISTER_SIZE_Select
   806 ;;		_TIMER3_Set_Prescaler
   807 ;; This function is called by:
   808 ;;		_main
   809 ;; This function uses a non-reentrant model
   810 ;;
   811                           
   812                           	psect	text3
   813   001574                     __ptext3:
   814                           	callstack 0
   815   001574                     _TIMER3_init:
   816                           	callstack 26
   817   001574                     
   818                           ;MCAL_layer/TIMER3/TIMER3.c: 20:     if(((void*)0)==my_TIMER3)
   819   001574  5055               	movf	TIMER3_init@my_TIMER3^0,w,c
   820   001576  A4D8               	btfss	status,2,c
   821   001578  EFC0  F00A         	goto	u3341
   822   00157C  EFC2  F00A         	goto	u3340
   823   001580                     u3341:
   824   001580  EFC4  F00A         	goto	l1394
   825   001584                     u3340:
   826   001584                     
   827                           ;MCAL_layer/TIMER3/TIMER3.c: 23:     }
   828   001584  EFFC  F00A         	goto	l1396
   829   001588                     l1394:
   830                           
   831                           ;MCAL_layer/TIMER3/TIMER3.c: 25:     {;MCAL_layer/TIMER3/TIMER3.c: 27:         T3CONbits
      +                          .TMR3ON = 0;
   832   001588  90B1               	bcf	177,0,c	;volatile
   833   00158A                     
   834                           ;MCAL_layer/TIMER3/TIMER3.c: 29:         TIMER3_Set_Prescaler(my_TIMER3);
   835   00158A  C055  F053         	movff	TIMER3_init@my_TIMER3,TIMER3_Set_Prescaler@my_TIMER3
   836   00158E  EC22  F00C         	call	_TIMER3_Set_Prescaler	;wreg free
   837                           
   838                           ;MCAL_layer/TIMER3/TIMER3.c: 31:         TIMER3_Mode_Select(my_TIMER3);
   839   001592  C055  F053         	movff	TIMER3_init@my_TIMER3,TIMER3_Mode_Select@my_TIMER3
   840   001596  EC8B  F00B         	call	_TIMER3_Mode_Select	;wreg free
   841                           
   842                           ;MCAL_layer/TIMER3/TIMER3.c: 33:         TIMER3_REGISTER_SIZE_Select(my_TIMER3);
   843   00159A  C055  F053         	movff	TIMER3_init@my_TIMER3,TIMER3_REGISTER_SIZE_Select@my_TIMER3
   844   00159E  EC64  F00B         	call	_TIMER3_REGISTER_SIZE_Select	;wreg free
   845   0015A2                     
   846                           ;MCAL_layer/TIMER3/TIMER3.c: 35:         TMR3H = (uint8)(my_TIMER3->Timer3_preloaded_val
      +                          ue>>8);
   847   0015A2  5055               	movf	TIMER3_init@my_TIMER3^0,w,c
   848   0015A4  6ED9               	movwf	fsr2l,c
   849   0015A6  6ADA               	clrf	fsr2h,c
   850   0015A8  0E03               	movlw	3
   851   0015AA  26D9               	addwf	fsr2l,f,c
   852   0015AC  CFDE F056          	movff	postinc2,??_TIMER3_init
   853   0015B0  CFDD F057          	movff	postdec2,??_TIMER3_init+1
   854   0015B4  C057  F056         	movff	??_TIMER3_init+1,??_TIMER3_init
   855   0015B8  6A57               	clrf	(??_TIMER3_init+1)^0,c
   856   0015BA  5056               	movf	??_TIMER3_init^0,w,c
   857   0015BC  6EB3               	movwf	179,c	;volatile
   858   0015BE                     
   859                           ;MCAL_layer/TIMER3/TIMER3.c: 36:         TMR3L = (uint8)(my_TIMER3->Timer3_preloaded_val
      +                          ue);
   860   0015BE  5055               	movf	TIMER3_init@my_TIMER3^0,w,c
   861   0015C0  6ED9               	movwf	fsr2l,c
   862   0015C2  6ADA               	clrf	fsr2h,c
   863   0015C4  0E03               	movlw	3
   864   0015C6  26D9               	addwf	fsr2l,f,c
   865   0015C8  50DF               	movf	indf2,w,c
   866   0015CA  6EB2               	movwf	178,c	;volatile
   867   0015CC                     
   868                           ;MCAL_layer/TIMER3/TIMER3.c: 38:         timer3_preload=my_TIMER3->Timer3_preloaded_valu
      +                          e;
   869   0015CC  5055               	movf	TIMER3_init@my_TIMER3^0,w,c
   870   0015CE  6ED9               	movwf	fsr2l,c
   871   0015D0  6ADA               	clrf	fsr2h,c
   872   0015D2  0E03               	movlw	3
   873   0015D4  26D9               	addwf	fsr2l,f,c
   874   0015D6  CFDE F003          	movff	postinc2,_timer3_preload
   875   0015DA  CFDD F004          	movff	postdec2,_timer3_preload+1
   876   0015DE                     
   877                           ;MCAL_layer/TIMER3/TIMER3.c: 41:        PIE2bits.TMR3IE = 1;
   878   0015DE  82A0               	bsf	160,1,c	;volatile
   879   0015E0                     
   880                           ;MCAL_layer/TIMER3/TIMER3.c: 42:        PIR2bits.TMR3IF = 0;
   881   0015E0  92A1               	bcf	161,1,c	;volatile
   882   0015E2                     
   883                           ;MCAL_layer/TIMER3/TIMER3.c: 45:        INTCONbits.GIE = 1;
   884   0015E2  8EF2               	bsf	242,7,c	;volatile
   885   0015E4                     
   886                           ;MCAL_layer/TIMER3/TIMER3.c: 46:        INTCONbits.PEIE = 1;
   887   0015E4  8CF2               	bsf	242,6,c	;volatile
   888   0015E6                     
   889                           ;MCAL_layer/TIMER3/TIMER3.c: 47:        RCONbits.IPEN = 0;
   890   0015E6  9ED0               	bcf	208,7,c	;volatile
   891   0015E8                     
   892                           ;MCAL_layer/TIMER3/TIMER3.c: 64:         TIMER3_INTERRUPT_HANDLER_CALL_BACK=my_TIMER3->T
      +                          IMER3_INTERRUPT_HANDLER;
   893   0015E8  5055               	movf	TIMER3_init@my_TIMER3^0,w,c
   894   0015EA  6ED9               	movwf	fsr2l,c
   895   0015EC  6ADA               	clrf	fsr2h,c
   896   0015EE  CFDE F001          	movff	postinc2,_TIMER3_INTERRUPT_HANDLER_CALL_BACK
   897   0015F2  CFDD F002          	movff	postdec2,_TIMER3_INTERRUPT_HANDLER_CALL_BACK+1
   898   0015F6                     
   899                           ;MCAL_layer/TIMER3/TIMER3.c: 67:         T3CONbits.TMR3ON = 1;
   900   0015F6  80B1               	bsf	177,0,c	;volatile
   901   0015F8                     l1396:
   902   0015F8  0012               	return		;funcret
   903   0015FA                     __end_of_TIMER3_init:
   904                           	callstack 0
   905                           
   906 ;; *************** function _TIMER3_Set_Prescaler *****************
   907 ;; Defined at:
   908 ;;		line 135 in file "MCAL_layer/TIMER3/TIMER3.c"
   909 ;; Parameters:    Size  Location     Type
   910 ;;  my_TIMER3       1    3[COMRAM] PTR const struct .
   911 ;;		 -> timer3(6), 
   912 ;; Auto vars:     Size  Location     Type
   913 ;;  RET             1    0        unsigned char 
   914 ;; Return value:  Size  Location     Type
   915 ;;                  1    wreg      unsigned char 
   916 ;; Registers used:
   917 ;;		wreg, fsr2l, fsr2h, status,2, status,0
   918 ;; Tracked objects:
   919 ;;		On entry : 0/0
   920 ;;		On exit  : 0/0
   921 ;;		Unchanged: 0/0
   922 ;; Data sizes:     COMRAM   BANK0   BANK1   BANK2   BANK3   BANK4   BANK5   BANK6   BANK7   BANK8   BANK9  BANK10  BANK1
      +1  BANK12  BANK13  BANK14  BANK15
   923 ;;      Params:         1       0       0       0       0       0       0       0       0       0       0       0       
      +0       0       0       0       0
   924 ;;      Locals:         0       0       0       0       0       0       0       0       0       0       0       0       
      +0       0       0       0       0
   925 ;;      Temps:          1       0       0       0       0       0       0       0       0       0       0       0       
      +0       0       0       0       0
   926 ;;      Totals:         2       0       0       0       0       0       0       0       0       0       0       0       
      +0       0       0       0       0
   927 ;;Total ram usage:        2 bytes
   928 ;; Hardware stack levels used: 1
   929 ;; Hardware stack levels required when called: 3
   930 ;; This function calls:
   931 ;;		Nothing
   932 ;; This function is called by:
   933 ;;		_TIMER3_init
   934 ;; This function uses a non-reentrant model
   935 ;;
   936                           
   937                           	psect	text4
   938   001844                     __ptext4:
   939                           	callstack 0
   940   001844                     _TIMER3_Set_Prescaler:
   941                           	callstack 26
   942   001844                     
   943                           ;MCAL_layer/TIMER3/TIMER3.c: 138:     if(((void*)0)==my_TIMER3)
   944   001844  5053               	movf	TIMER3_Set_Prescaler@my_TIMER3^0,w,c
   945   001846  A4D8               	btfss	status,2,c
   946   001848  EF28  F00C         	goto	u3121
   947   00184C  EF2A  F00C         	goto	u3120
   948   001850                     u3121:
   949   001850  EF2C  F00C         	goto	l4636
   950   001854                     u3120:
   951   001854                     
   952                           ;MCAL_layer/TIMER3/TIMER3.c: 141:     }
   953   001854  EF3A  F00C         	goto	l1422
   954   001858                     l4636:
   955                           
   956                           ;MCAL_layer/TIMER3/TIMER3.c: 143:     {;MCAL_layer/TIMER3/TIMER3.c: 146:             T3C
      +                          ONbits.T3CKPS = my_TIMER3->PRE_SCALER_VALUE;
   957   001858  5053               	movf	TIMER3_Set_Prescaler@my_TIMER3^0,w,c
   958   00185A  6ED9               	movwf	fsr2l,c
   959   00185C  6ADA               	clrf	fsr2h,c
   960   00185E  0E02               	movlw	2
   961   001860  26D9               	addwf	fsr2l,f,c
   962   001862  50DF               	movf	223,w,c
   963   001864  0B03               	andlw	3
   964   001866  6E54               	movwf	??_TIMER3_Set_Prescaler^0,c
   965   001868  3A54               	swapf	??_TIMER3_Set_Prescaler^0,f,c
   966   00186A  50B1               	movf	177,w,c	;volatile
   967   00186C  1854               	xorwf	??_TIMER3_Set_Prescaler^0,w,c
   968   00186E  0BCF               	andlw	-49
   969   001870  1854               	xorwf	??_TIMER3_Set_Prescaler^0,w,c
   970   001872  6EB1               	movwf	177,c	;volatile
   971   001874                     l1422:
   972   001874  0012               	return		;funcret
   973   001876                     __end_of_TIMER3_Set_Prescaler:
   974                           	callstack 0
   975                           
   976 ;; *************** function _TIMER3_REGISTER_SIZE_Select *****************
   977 ;; Defined at:
   978 ;;		line 175 in file "MCAL_layer/TIMER3/TIMER3.c"
   979 ;; Parameters:    Size  Location     Type
   980 ;;  my_TIMER3       1    3[COMRAM] PTR const struct .
   981 ;;		 -> timer3(6), 
   982 ;; Auto vars:     Size  Location     Type
   983 ;;  RET             1    0        unsigned char 
   984 ;; Return value:  Size  Location     Type
   985 ;;                  1    wreg      unsigned char 
   986 ;; Registers used:
   987 ;;		wreg, fsr2l, fsr2h, status,2, status,0
   988 ;; Tracked objects:
   989 ;;		On entry : 0/0
   990 ;;		On exit  : 0/0
   991 ;;		Unchanged: 0/0
   992 ;; Data sizes:     COMRAM   BANK0   BANK1   BANK2   BANK3   BANK4   BANK5   BANK6   BANK7   BANK8   BANK9  BANK10  BANK1
      +1  BANK12  BANK13  BANK14  BANK15
   993 ;;      Params:         1       0       0       0       0       0       0       0       0       0       0       0       
      +0       0       0       0       0
   994 ;;      Locals:         0       0       0       0       0       0       0       0       0       0       0       0       
      +0       0       0       0       0
   995 ;;      Temps:          0       0       0       0       0       0       0       0       0       0       0       0       
      +0       0       0       0       0
   996 ;;      Totals:         1       0       0       0       0       0       0       0       0       0       0       0       
      +0       0       0       0       0
   997 ;;Total ram usage:        1 bytes
   998 ;; Hardware stack levels used: 1
   999 ;; Hardware stack levels required when called: 3
  1000 ;; This function calls:
  1001 ;;		Nothing
  1002 ;; This function is called by:
  1003 ;;		_TIMER3_init
  1004 ;; This function uses a non-reentrant model
  1005 ;;
  1006                           
  1007                           	psect	text5
  1008   0016C8                     __ptext5:
  1009                           	callstack 0
  1010   0016C8                     _TIMER3_REGISTER_SIZE_Select:
  1011                           	callstack 26
  1012   0016C8                     
  1013                           ;MCAL_layer/TIMER3/TIMER3.c: 178:     if(((void*)0)==my_TIMER3)
  1014   0016C8  5053               	movf	TIMER3_REGISTER_SIZE_Select@my_TIMER3^0,w,c
  1015   0016CA  A4D8               	btfss	status,2,c
  1016   0016CC  EF6A  F00B         	goto	u3161
  1017   0016D0  EF6C  F00B         	goto	u3160
  1018   0016D4                     u3161:
  1019   0016D4  EF6E  F00B         	goto	l4656
  1020   0016D8                     u3160:
  1021   0016D8                     
  1022                           ;MCAL_layer/TIMER3/TIMER3.c: 181:     }
  1023   0016D8  EF8A  F00B         	goto	l1438
  1024   0016DC                     l4656:
  1025                           
  1026                           ;MCAL_layer/TIMER3/TIMER3.c: 183:     {;MCAL_layer/TIMER3/TIMER3.c: 184:         if(my_T
      +                          IMER3->Timer3_REGISTER_SIZE==0)
  1027   0016DC  5053               	movf	TIMER3_REGISTER_SIZE_Select@my_TIMER3^0,w,c
  1028   0016DE  6ED9               	movwf	fsr2l,c
  1029   0016E0  6ADA               	clrf	fsr2h,c
  1030   0016E2  0E02               	movlw	2
  1031   0016E4  26D9               	addwf	fsr2l,f,c
  1032   0016E6  B8DF               	btfsc	indf2,4,c
  1033   0016E8  EF78  F00B         	goto	u3171
  1034   0016EC  EF7A  F00B         	goto	u3170
  1035   0016F0                     u3171:
  1036   0016F0  EF7D  F00B         	goto	l4660
  1037   0016F4                     u3170:
  1038   0016F4                     
  1039                           ;MCAL_layer/TIMER3/TIMER3.c: 185:         {;MCAL_layer/TIMER3/TIMER3.c: 186:            
      +                           T3CONbits.RD16 = 0;
  1040   0016F4  9EB1               	bcf	177,7,c	;volatile
  1041                           
  1042                           ;MCAL_layer/TIMER3/TIMER3.c: 187:         }
  1043   0016F6  EF8A  F00B         	goto	l1438
  1044   0016FA                     l4660:
  1045   0016FA  5053               	movf	TIMER3_REGISTER_SIZE_Select@my_TIMER3^0,w,c
  1046   0016FC  6ED9               	movwf	fsr2l,c
  1047   0016FE  6ADA               	clrf	fsr2h,c
  1048   001700  0E02               	movlw	2
  1049   001702  26D9               	addwf	fsr2l,f,c
  1050   001704  A8DF               	btfss	indf2,4,c
  1051   001706  EF87  F00B         	goto	u3181
  1052   00170A  EF89  F00B         	goto	u3180
  1053   00170E                     u3181:
  1054   00170E  EF8A  F00B         	goto	l1438
  1055   001712                     u3180:
  1056   001712                     
  1057                           ;MCAL_layer/TIMER3/TIMER3.c: 189:         {;MCAL_layer/TIMER3/TIMER3.c: 190:            
      +                           T3CONbits.RD16 = 1;
  1058   001712  8EB1               	bsf	177,7,c	;volatile
  1059   001714                     l1438:
  1060   001714  0012               	return		;funcret
  1061   001716                     __end_of_TIMER3_REGISTER_SIZE_Select:
  1062                           	callstack 0
  1063                           
  1064 ;; *************** function _TIMER3_Mode_Select *****************
  1065 ;; Defined at:
  1066 ;;		line 155 in file "MCAL_layer/TIMER3/TIMER3.c"
  1067 ;; Parameters:    Size  Location     Type
  1068 ;;  my_TIMER3       1    3[COMRAM] PTR const struct .
  1069 ;;		 -> timer3(6), 
  1070 ;; Auto vars:     Size  Location     Type
  1071 ;;  RET             1    0        unsigned char 
  1072 ;; Return value:  Size  Location     Type
  1073 ;;                  1    wreg      unsigned char 
  1074 ;; Registers used:
  1075 ;;		wreg, fsr2l, fsr2h, status,2, status,0
  1076 ;; Tracked objects:
  1077 ;;		On entry : 0/0
  1078 ;;		On exit  : 0/0
  1079 ;;		Unchanged: 0/0
  1080 ;; Data sizes:     COMRAM   BANK0   BANK1   BANK2   BANK3   BANK4   BANK5   BANK6   BANK7   BANK8   BANK9  BANK10  BANK1
      +1  BANK12  BANK13  BANK14  BANK15
  1081 ;;      Params:         1       0       0       0       0       0       0       0       0       0       0       0       
      +0       0       0       0       0
  1082 ;;      Locals:         0       0       0       0       0       0       0       0       0       0       0       0       
      +0       0       0       0       0
  1083 ;;      Temps:          0       0       0       0       0       0       0       0       0       0       0       0       
      +0       0       0       0       0
  1084 ;;      Totals:         1       0       0       0       0       0       0       0       0       0       0       0       
      +0       0       0       0       0
  1085 ;;Total ram usage:        1 bytes
  1086 ;; Hardware stack levels used: 1
  1087 ;; Hardware stack levels required when called: 3
  1088 ;; This function calls:
  1089 ;;		Nothing
  1090 ;; This function is called by:
  1091 ;;		_TIMER3_init
  1092 ;; This function uses a non-reentrant model
  1093 ;;
  1094                           
  1095                           	psect	text6
  1096   001716                     __ptext6:
  1097                           	callstack 0
  1098   001716                     _TIMER3_Mode_Select:
  1099                           	callstack 26
  1100   001716                     
  1101                           ;MCAL_layer/TIMER3/TIMER3.c: 158:     if(((void*)0)==my_TIMER3)
  1102   001716  5053               	movf	TIMER3_Mode_Select@my_TIMER3^0,w,c
  1103   001718  A4D8               	btfss	status,2,c
  1104   00171A  EF91  F00B         	goto	u3131
  1105   00171E  EF93  F00B         	goto	u3130
  1106   001722                     u3131:
  1107   001722  EF95  F00B         	goto	l4644
  1108   001726                     u3130:
  1109   001726                     
  1110                           ;MCAL_layer/TIMER3/TIMER3.c: 161:     }
  1111   001726  EFB1  F00B         	goto	l1430
  1112   00172A                     l4644:
  1113                           
  1114                           ;MCAL_layer/TIMER3/TIMER3.c: 163:     {;MCAL_layer/TIMER3/TIMER3.c: 164:         if(my_T
      +                          IMER3->Timer3_MODE==0)
  1115   00172A  5053               	movf	TIMER3_Mode_Select@my_TIMER3^0,w,c
  1116   00172C  6ED9               	movwf	fsr2l,c
  1117   00172E  6ADA               	clrf	fsr2h,c
  1118   001730  0E02               	movlw	2
  1119   001732  26D9               	addwf	fsr2l,f,c
  1120   001734  B4DF               	btfsc	indf2,2,c
  1121   001736  EF9F  F00B         	goto	u3141
  1122   00173A  EFA1  F00B         	goto	u3140
  1123   00173E                     u3141:
  1124   00173E  EFA4  F00B         	goto	l4648
  1125   001742                     u3140:
  1126   001742                     
  1127                           ;MCAL_layer/TIMER3/TIMER3.c: 165:         {;MCAL_layer/TIMER3/TIMER3.c: 166:            
      +                           T3CONbits.TMR3CS = 0;
  1128   001742  92B1               	bcf	177,1,c	;volatile
  1129                           
  1130                           ;MCAL_layer/TIMER3/TIMER3.c: 167:         }
  1131   001744  EFB1  F00B         	goto	l1430
  1132   001748                     l4648:
  1133   001748  5053               	movf	TIMER3_Mode_Select@my_TIMER3^0,w,c
  1134   00174A  6ED9               	movwf	fsr2l,c
  1135   00174C  6ADA               	clrf	fsr2h,c
  1136   00174E  0E02               	movlw	2
  1137   001750  26D9               	addwf	fsr2l,f,c
  1138   001752  A4DF               	btfss	indf2,2,c
  1139   001754  EFAE  F00B         	goto	u3151
  1140   001758  EFB0  F00B         	goto	u3150
  1141   00175C                     u3151:
  1142   00175C  EFB1  F00B         	goto	l1430
  1143   001760                     u3150:
  1144   001760                     
  1145                           ;MCAL_layer/TIMER3/TIMER3.c: 169:         {;MCAL_layer/TIMER3/TIMER3.c: 170:            
      +                           T3CONbits.TMR3CS = 1;
  1146   001760  82B1               	bsf	177,1,c	;volatile
  1147   001762                     l1430:
  1148   001762  0012               	return		;funcret
  1149   001764                     __end_of_TIMER3_Mode_Select:
  1150                           	callstack 0
  1151                           
  1152 ;; *************** function _CCP_Init *****************
  1153 ;; Defined at:
  1154 ;;		line 22 in file "CCP.c"
  1155 ;; Parameters:    Size  Location     Type
  1156 ;;  _ccp_obj        1    0[BANK0 ] PTR const struct .
  1157 ;;		 -> ccp2(9), 
  1158 ;; Auto vars:     Size  Location     Type
  1159 ;;  ret             1    0        unsigned char 
  1160 ;; Return value:  Size  Location     Type
  1161 ;;                  1    wreg      unsigned char 
  1162 ;; Registers used:
  1163 ;;		wreg, fsr2l, fsr2h, status,2, status,0, prodl, prodh, cstack
  1164 ;; Tracked objects:
  1165 ;;		On entry : 0/0
  1166 ;;		On exit  : 0/0
  1167 ;;		Unchanged: 0/0
  1168 ;; Data sizes:     COMRAM   BANK0   BANK1   BANK2   BANK3   BANK4   BANK5   BANK6   BANK7   BANK8   BANK9  BANK10  BANK1
      +1  BANK12  BANK13  BANK14  BANK15
  1169 ;;      Params:         0       1       0       0       0       0       0       0       0       0       0       0       
      +0       0       0       0       0
  1170 ;;      Locals:         0       0       0       0       0       0       0       0       0       0       0       0       
      +0       0       0       0       0
  1171 ;;      Temps:          0       1       0       0       0       0       0       0       0       0       0       0       
      +0       0       0       0       0
  1172 ;;      Totals:         0       2       0       0       0       0       0       0       0       0       0       0       
      +0       0       0       0       0
  1173 ;;Total ram usage:        2 bytes
  1174 ;; Hardware stack levels used: 1
  1175 ;; Hardware stack levels required when called: 5
  1176 ;; This function calls:
  1177 ;;		_CCP_Capture_Mode_Config
  1178 ;;		_CCP_Compare_Mode_Config
  1179 ;;		_CCP_Interrupt_Config
  1180 ;;		_gpio_pin_initialize
  1181 ;; This function is called by:
  1182 ;;		_main
  1183 ;; This function uses a non-reentrant model
  1184 ;;
  1185                           
  1186                           	psect	text7
  1187   0014C8                     __ptext7:
  1188                           	callstack 0
  1189   0014C8                     _CCP_Init:
  1190                           	callstack 25
  1191   0014C8                     
  1192                           ;CCP.c: 25:     if(((void*)0) == _ccp_obj){
  1193   0014C8  0100               	movlb	0	; () banked
  1194   0014CA  51A1               	movf	CCP_Init@_ccp_obj& (0+255),w,b
  1195   0014CC  A4D8               	btfss	status,2,c
  1196   0014CE  EF6B  F00A         	goto	u3981
  1197   0014D2  EF6D  F00A         	goto	u3980
  1198   0014D6                     u3981:
  1199   0014D6  EF6F  F00A         	goto	l5454
  1200   0014DA                     u3980:
  1201   0014DA                     
  1202                           ; BSR set to: 0
  1203                           ;CCP.c: 27:     }
  1204   0014DA  EFB9  F00A         	goto	l535
  1205   0014DE                     l5454:
  1206                           
  1207                           ; BSR set to: 0
  1208                           ;CCP.c: 29:     {;CCP.c: 31:         if(CCP1_INST == _ccp_obj->ccp_inst){
  1209   0014DE  51A1               	movf	CCP_Init@_ccp_obj& (0+255),w,b
  1210   0014E0  6ED9               	movwf	fsr2l,c
  1211   0014E2  6ADA               	clrf	fsr2h,c
  1212   0014E4  50DF               	movf	indf2,w,c
  1213   0014E6  A4D8               	btfss	status,2,c
  1214   0014E8  EF78  F00A         	goto	u3991
  1215   0014EC  EF7A  F00A         	goto	u3990
  1216   0014F0                     u3991:
  1217   0014F0  EF7E  F00A         	goto	l5458
  1218   0014F4                     u3990:
  1219   0014F4                     
  1220                           ; BSR set to: 0
  1221                           ;CCP.c: 32:             (CCP1CONbits.CCP1M = ((uint8)0x00));
  1222   0014F4  0EF0               	movlw	-16
  1223   0014F6  16BD               	andwf	189,f,c	;volatile
  1224                           
  1225                           ;CCP.c: 33:         }
  1226   0014F8  EF8B  F00A         	goto	l5462
  1227   0014FC                     l5458:
  1228                           
  1229                           ; BSR set to: 0
  1230   0014FC  51A1               	movf	CCP_Init@_ccp_obj& (0+255),w,b
  1231   0014FE  6ED9               	movwf	fsr2l,c
  1232   001500  6ADA               	clrf	fsr2h,c
  1233   001502  04DE               	decf	postinc2,w,c
  1234   001504  A4D8               	btfss	status,2,c
  1235   001506  EF87  F00A         	goto	u4001
  1236   00150A  EF89  F00A         	goto	u4000
  1237   00150E                     u4001:
  1238   00150E  EF8B  F00A         	goto	l5462
  1239   001512                     u4000:
  1240   001512                     
  1241                           ; BSR set to: 0
  1242                           ;CCP.c: 35:             (CCP2CONbits.CCP2M = ((uint8)0x00));
  1243   001512  0EF0               	movlw	-16
  1244   001514  16BA               	andwf	186,f,c	;volatile
  1245   001516                     l5462:
  1246                           
  1247                           ; BSR set to: 0
  1248                           ;CCP.c: 40:         if(CCP_CAPTURE_MODE_SELECTED == _ccp_obj->ccp_mode){
  1249   001516  51A1               	movf	CCP_Init@_ccp_obj& (0+255),w,b
  1250   001518  6ED9               	movwf	fsr2l,c
  1251   00151A  6ADA               	clrf	fsr2h,c
  1252   00151C  0E01               	movlw	1
  1253   00151E  26D9               	addwf	fsr2l,f,c
  1254   001520  50DF               	movf	indf2,w,c
  1255   001522  A4D8               	btfss	status,2,c
  1256   001524  EF96  F00A         	goto	u4011
  1257   001528  EF98  F00A         	goto	u4010
  1258   00152C                     u4011:
  1259   00152C  EF9E  F00A         	goto	l5466
  1260   001530                     u4010:
  1261   001530                     
  1262                           ; BSR set to: 0
  1263   001530  C0A1  F055         	movff	CCP_Init@_ccp_obj,CCP_Capture_Mode_Config@_ccp_obj
  1264   001534  ECB4  F008         	call	_CCP_Capture_Mode_Config	;wreg free
  1265                           
  1266                           ;CCP.c: 42:         }
  1267   001538  EFAF  F00A         	goto	l5470
  1268   00153C                     l5466:
  1269                           
  1270                           ; BSR set to: 0
  1271   00153C  51A1               	movf	CCP_Init@_ccp_obj& (0+255),w,b
  1272   00153E  6ED9               	movwf	fsr2l,c
  1273   001540  6ADA               	clrf	fsr2h,c
  1274   001542  0E01               	movlw	1
  1275   001544  26D9               	addwf	fsr2l,f,c
  1276   001546  04DE               	decf	postinc2,w,c
  1277   001548  A4D8               	btfss	status,2,c
  1278   00154A  EFA9  F00A         	goto	u4021
  1279   00154E  EFAB  F00A         	goto	u4020
  1280   001552                     u4021:
  1281   001552  EFAF  F00A         	goto	l5470
  1282   001556                     u4020:
  1283   001556                     
  1284                           ; BSR set to: 0
  1285   001556  C0A1  F055         	movff	CCP_Init@_ccp_obj,CCP_Compare_Mode_Config@_ccp_obj
  1286   00155A  EC0B  F008         	call	_CCP_Compare_Mode_Config	;wreg free
  1287   00155E                     l5470:
  1288   00155E  0100               	movlb	0	; () banked
  1289   001560  51A1               	movf	CCP_Init@_ccp_obj& (0+255),w,b
  1290   001562  0F03               	addlw	3
  1291   001564  6E5A               	movwf	gpio_pin_initialize@pin^0,c
  1292   001566  EC08  F00C         	call	_gpio_pin_initialize	;wreg free
  1293   00156A                     
  1294                           ;CCP.c: 57:         CCP_Interrupt_Config(_ccp_obj);
  1295   00156A  C0A1  F053         	movff	CCP_Init@_ccp_obj,CCP_Interrupt_Config@_ccp_obj
  1296   00156E  ECD0  F00B         	call	_CCP_Interrupt_Config	;wreg free
  1297   001572                     l535:
  1298   001572  0012               	return		;funcret
  1299   001574                     __end_of_CCP_Init:
  1300                           	callstack 0
  1301                           
  1302 ;; *************** function _gpio_pin_initialize *****************
  1303 ;; Defined at:
  1304 ;;		line 283 in file "MCAL_layer/GPIO/hal_gpio.c"
  1305 ;; Parameters:    Size  Location     Type
  1306 ;;  pin             1   10[COMRAM] PTR const struct .
  1307 ;;		 -> ccp2(9), led_initialize@led_pin(1), 
  1308 ;; Auto vars:     Size  Location     Type
  1309 ;;  RET             1   11[COMRAM] unsigned char 
  1310 ;; Return value:  Size  Location     Type
  1311 ;;                  1    wreg      unsigned char 
  1312 ;; Registers used:
  1313 ;;		wreg, fsr2l, fsr2h, status,2, status,0, prodl, prodh, cstack
  1314 ;; Tracked objects:
  1315 ;;		On entry : 0/0
  1316 ;;		On exit  : 0/0
  1317 ;;		Unchanged: 0/0
  1318 ;; Data sizes:     COMRAM   BANK0   BANK1   BANK2   BANK3   BANK4   BANK5   BANK6   BANK7   BANK8   BANK9  BANK10  BANK1
      +1  BANK12  BANK13  BANK14  BANK15
  1319 ;;      Params:         1       0       0       0       0       0       0       0       0       0       0       0       
      +0       0       0       0       0
  1320 ;;      Locals:         1       0       0       0       0       0       0       0       0       0       0       0       
      +0       0       0       0       0
  1321 ;;      Temps:          0       0       0       0       0       0       0       0       0       0       0       0       
      +0       0       0       0       0
  1322 ;;      Totals:         2       0       0       0       0       0       0       0       0       0       0       0       
      +0       0       0       0       0
  1323 ;;Total ram usage:        2 bytes
  1324 ;; Hardware stack levels used: 1
  1325 ;; Hardware stack levels required when called: 4
  1326 ;; This function calls:
  1327 ;;		_gpio_pin_direction_initialize
  1328 ;;		_gpio_pin_write_logic
  1329 ;; This function is called by:
  1330 ;;		_CCP_Init
  1331 ;;		__7_segment_initialize
  1332 ;;		_Motor_initialize
  1333 ;;		_keypad_initialize
  1334 ;;		_lcd_4bit_initialize
  1335 ;;		_lcd_8bit_initialize
  1336 ;;		_led_initialize
  1337 ;;		_relay_initialize
  1338 ;; This function uses a non-reentrant model
  1339 ;;
  1340                           
  1341                           	psect	text8
  1342   001810                     __ptext8:
  1343                           	callstack 0
  1344   001810                     _gpio_pin_initialize:
  1345                           	callstack 25
  1346   001810                     
  1347                           ;MCAL_layer/GPIO/hal_gpio.c: 283: Std_ReturnType gpio_pin_initialize(const pin_configrat
      +                          ion *pin);MCAL_layer/GPIO/hal_gpio.c: 284: {;MCAL_layer/GPIO/hal_gpio.c: 285:     Std_Re
      +                          turnType RET = (Std_ReturnType)0x01;
  1348   001810  0E01               	movlw	1
  1349   001812  6E5B               	movwf	gpio_pin_initialize@RET^0,c
  1350                           
  1351                           ;MCAL_layer/GPIO/hal_gpio.c: 286:     if(((void*)0)==pin)
  1352   001814  505A               	movf	gpio_pin_initialize@pin^0,w,c
  1353   001816  A4D8               	btfss	status,2,c
  1354   001818  EF10  F00C         	goto	u2981
  1355   00181C  EF12  F00C         	goto	u2980
  1356   001820                     u2981:
  1357   001820  EF16  F00C         	goto	l4434
  1358   001824                     u2980:
  1359   001824                     
  1360                           ;MCAL_layer/GPIO/hal_gpio.c: 287:     {;MCAL_layer/GPIO/hal_gpio.c: 288:        RET = (S
      +                          td_ReturnType)0x00;
  1361   001824  0E00               	movlw	0
  1362   001826  6E5B               	movwf	gpio_pin_initialize@RET^0,c
  1363                           
  1364                           ;MCAL_layer/GPIO/hal_gpio.c: 289:     }
  1365   001828  EF20  F00C         	goto	l4436
  1366   00182C                     l4434:
  1367                           
  1368                           ;MCAL_layer/GPIO/hal_gpio.c: 291:     {;MCAL_layer/GPIO/hal_gpio.c: 292:         gpio_pi
      +                          n_direction_initialize(pin);
  1369   00182C  C05A  F053         	movff	gpio_pin_initialize@pin,gpio_pin_direction_initialize@pin
  1370   001830  EC4E  F009         	call	_gpio_pin_direction_initialize	;wreg free
  1371                           
  1372                           ;MCAL_layer/GPIO/hal_gpio.c: 293:         gpio_pin_write_logic(pin,low);
  1373   001834  C05A  F053         	movff	gpio_pin_initialize@pin,gpio_pin_write_logic@pin
  1374   001838  0E00               	movlw	0
  1375   00183A  6E54               	movwf	gpio_pin_write_logic@logic^0,c
  1376   00183C  ECE1  F009         	call	_gpio_pin_write_logic	;wreg free
  1377   001840                     l4436:
  1378                           
  1379                           ;MCAL_layer/GPIO/hal_gpio.c: 295:     return RET;
  1380   001840  505B               	movf	gpio_pin_initialize@RET^0,w,c
  1381   001842  0012               	return		;funcret
  1382   001844                     __end_of_gpio_pin_initialize:
  1383                           	callstack 0
  1384                           
  1385 ;; *************** function _gpio_pin_write_logic *****************
  1386 ;; Defined at:
  1387 ;;		line 82 in file "MCAL_layer/GPIO/hal_gpio.c"
  1388 ;; Parameters:    Size  Location     Type
  1389 ;;  pin             1    3[COMRAM] PTR const struct .
  1390 ;;		 -> ccp2(9), led_OFF@led_pin(1), led_ON@led_pin(1), led_initialize@led_pin(1), 
  1391 ;;  logic           1    4[COMRAM] enum E3230
  1392 ;; Auto vars:     Size  Location     Type
  1393 ;;  RET             1    0        unsigned char 
  1394 ;; Return value:  Size  Location     Type
  1395 ;;                  1    wreg      unsigned char 
  1396 ;; Registers used:
  1397 ;;		wreg, fsr2l, fsr2h, status,2, status,0, prodl, prodh
  1398 ;; Tracked objects:
  1399 ;;		On entry : 0/0
  1400 ;;		On exit  : 0/0
  1401 ;;		Unchanged: 0/0
  1402 ;; Data sizes:     COMRAM   BANK0   BANK1   BANK2   BANK3   BANK4   BANK5   BANK6   BANK7   BANK8   BANK9  BANK10  BANK1
      +1  BANK12  BANK13  BANK14  BANK15
  1403 ;;      Params:         2       0       0       0       0       0       0       0       0       0       0       0       
      +0       0       0       0       0
  1404 ;;      Locals:         0       0       0       0       0       0       0       0       0       0       0       0       
      +0       0       0       0       0
  1405 ;;      Temps:          5       0       0       0       0       0       0       0       0       0       0       0       
      +0       0       0       0       0
  1406 ;;      Totals:         7       0       0       0       0       0       0       0       0       0       0       0       
      +0       0       0       0       0
  1407 ;;Total ram usage:        7 bytes
  1408 ;; Hardware stack levels used: 1
  1409 ;; Hardware stack levels required when called: 3
  1410 ;; This function calls:
  1411 ;;		Nothing
  1412 ;; This function is called by:
  1413 ;;		_gpio_pin_initialize
  1414 ;;		__7_segment_write_number
  1415 ;;		_Motor_move_forward
  1416 ;;		_Motor_move_backward
  1417 ;;		_Motor_stop
  1418 ;;		_keypad_get_value
  1419 ;;		_lcd_4bit_send_command
  1420 ;;		_lcd_4bit_send_data
  1421 ;;		_lcd_8bit_send_command
  1422 ;;		_lcd_8bit_send_data
  1423 ;;		_lcd_4bit_send_enable_signal
  1424 ;;		_lcd_8bit_send_enable_signal
  1425 ;;		_lcd_4bit_send_data_command
  1426 ;;		_led_ON
  1427 ;;		_led_OFF
  1428 ;;		_relay_turn_on
  1429 ;;		_relay_turn_off
  1430 ;; This function uses a non-reentrant model
  1431 ;;
  1432                           
  1433                           	psect	text9
  1434   0013C2                     __ptext9:
  1435                           	callstack 0
  1436   0013C2                     _gpio_pin_write_logic:
  1437                           	callstack 25
  1438   0013C2                     
  1439                           ;MCAL_layer/GPIO/hal_gpio.c: 85:     if( (((void*)0)==pin) || (pin->pin > 8 -1) )
  1440   0013C2  5053               	movf	gpio_pin_write_logic@pin^0,w,c
  1441   0013C4  B4D8               	btfsc	status,2,c
  1442   0013C6  EFE7  F009         	goto	u2851
  1443   0013CA  EFE9  F009         	goto	u2850
  1444   0013CE                     u2851:
  1445   0013CE  EFF9  F009         	goto	l4382
  1446   0013D2                     u2850:
  1447   0013D2  5053               	movf	gpio_pin_write_logic@pin^0,w,c
  1448   0013D4  6ED9               	movwf	fsr2l,c
  1449   0013D6  6ADA               	clrf	fsr2h,c
  1450   0013D8  30DF               	rrcf	223,w,c
  1451   0013DA  32E8               	rrcf	wreg,f,c
  1452   0013DC  32E8               	rrcf	wreg,f,c
  1453   0013DE  0B07               	andlw	7
  1454   0013E0  6E55               	movwf	??_gpio_pin_write_logic^0,c
  1455   0013E2  0E07               	movlw	7
  1456   0013E4  6455               	cpfsgt	??_gpio_pin_write_logic^0,c
  1457   0013E6  EFF7  F009         	goto	u2861
  1458   0013EA  EFF9  F009         	goto	u2860
  1459   0013EE                     u2861:
  1460   0013EE  EF4E  F00A         	goto	l4390
  1461   0013F2                     u2860:
  1462   0013F2                     l4382:
  1463                           
  1464                           ;MCAL_layer/GPIO/hal_gpio.c: 88:     }
  1465   0013F2  EF63  F00A         	goto	l719
  1466   0013F6                     l4384:
  1467                           
  1468                           ;MCAL_layer/GPIO/hal_gpio.c: 94:                 *LAT_REGESTERS[pin->port]&=~((uint8)1<<
      +                          pin->pin);
  1469   0013F6  5053               	movf	gpio_pin_write_logic@pin^0,w,c
  1470   0013F8  6ED9               	movwf	fsr2l,c
  1471   0013FA  6ADA               	clrf	fsr2h,c
  1472   0013FC  30DF               	rrcf	223,w,c
  1473   0013FE  32E8               	rrcf	wreg,f,c
  1474   001400  32E8               	rrcf	wreg,f,c
  1475   001402  0B07               	andlw	7
  1476   001404  6E55               	movwf	??_gpio_pin_write_logic^0,c
  1477   001406  0E01               	movlw	1
  1478   001408  6E56               	movwf	(??_gpio_pin_write_logic+1)^0,c
  1479   00140A  2A55               	incf	??_gpio_pin_write_logic^0,f,c
  1480   00140C  EF0A  F00A         	goto	u2874
  1481   001410                     u2875:
  1482   001410  90D8               	bcf	status,0,c
  1483   001412  3656               	rlcf	(??_gpio_pin_write_logic+1)^0,f,c
  1484   001414                     u2874:
  1485   001414  2E55               	decfsz	??_gpio_pin_write_logic^0,f,c
  1486   001416  EF08  F00A         	goto	u2875
  1487   00141A  5056               	movf	(??_gpio_pin_write_logic+1)^0,w,c
  1488   00141C  0AFF               	xorlw	255
  1489   00141E  6E57               	movwf	(??_gpio_pin_write_logic+2)^0,c
  1490   001420  5053               	movf	gpio_pin_write_logic@pin^0,w,c
  1491   001422  6ED9               	movwf	fsr2l,c
  1492   001424  6ADA               	clrf	fsr2h,c
  1493   001426  50DF               	movf	223,w,c
  1494   001428  0B07               	andlw	7
  1495   00142A  0D02               	mullw	2
  1496   00142C  50F3               	movf	243,w,c
  1497   00142E  0F32               	addlw	low _LAT_REGESTERS
  1498   001430  6ED9               	movwf	fsr2l,c
  1499   001432  6ADA               	clrf	fsr2h,c
  1500   001434  CFDE F058          	movff	postinc2,??_gpio_pin_write_logic+3
  1501   001438  CFDD F059          	movff	postdec2,??_gpio_pin_write_logic+4
  1502   00143C  C058  FFD9         	movff	??_gpio_pin_write_logic+3,fsr2l
  1503   001440  C059  FFDA         	movff	??_gpio_pin_write_logic+4,fsr2h
  1504   001444  5057               	movf	(??_gpio_pin_write_logic+2)^0,w,c
  1505   001446  16DF               	andwf	indf2,f,c
  1506                           
  1507                           ;MCAL_layer/GPIO/hal_gpio.c: 95:                 break;
  1508   001448  EF63  F00A         	goto	l719
  1509   00144C                     l4386:
  1510                           
  1511                           ;MCAL_layer/GPIO/hal_gpio.c: 98:                 *LAT_REGESTERS[pin->port]|=((uint8)1<<p
      +                          in->pin);
  1512   00144C  5053               	movf	gpio_pin_write_logic@pin^0,w,c
  1513   00144E  6ED9               	movwf	fsr2l,c
  1514   001450  6ADA               	clrf	fsr2h,c
  1515   001452  30DF               	rrcf	223,w,c
  1516   001454  32E8               	rrcf	wreg,f,c
  1517   001456  32E8               	rrcf	wreg,f,c
  1518   001458  0B07               	andlw	7
  1519   00145A  6E55               	movwf	??_gpio_pin_write_logic^0,c
  1520   00145C  0E01               	movlw	1
  1521   00145E  6E56               	movwf	(??_gpio_pin_write_logic+1)^0,c
  1522   001460  2A55               	incf	??_gpio_pin_write_logic^0,f,c
  1523   001462  EF35  F00A         	goto	u2884
  1524   001466                     u2885:
  1525   001466  90D8               	bcf	status,0,c
  1526   001468  3656               	rlcf	(??_gpio_pin_write_logic+1)^0,f,c
  1527   00146A                     u2884:
  1528   00146A  2E55               	decfsz	??_gpio_pin_write_logic^0,f,c
  1529   00146C  EF33  F00A         	goto	u2885
  1530   001470  5053               	movf	gpio_pin_write_logic@pin^0,w,c
  1531   001472  6ED9               	movwf	fsr2l,c
  1532   001474  6ADA               	clrf	fsr2h,c
  1533   001476  50DF               	movf	223,w,c
  1534   001478  0B07               	andlw	7
  1535   00147A  0D02               	mullw	2
  1536   00147C  50F3               	movf	243,w,c
  1537   00147E  0F32               	addlw	low _LAT_REGESTERS
  1538   001480  6ED9               	movwf	fsr2l,c
  1539   001482  6ADA               	clrf	fsr2h,c
  1540   001484  CFDE F057          	movff	postinc2,??_gpio_pin_write_logic+2
  1541   001488  CFDD F058          	movff	postdec2,??_gpio_pin_write_logic+3
  1542   00148C  C057  FFD9         	movff	??_gpio_pin_write_logic+2,fsr2l
  1543   001490  C058  FFDA         	movff	??_gpio_pin_write_logic+3,fsr2h
  1544   001494  5056               	movf	(??_gpio_pin_write_logic+1)^0,w,c
  1545   001496  12DF               	iorwf	indf2,f,c
  1546                           
  1547                           ;MCAL_layer/GPIO/hal_gpio.c: 99:                 break;
  1548   001498  EF63  F00A         	goto	l719
  1549   00149C                     l4390:
  1550   00149C  5054               	movf	gpio_pin_write_logic@logic^0,w,c
  1551   00149E  6E55               	movwf	??_gpio_pin_write_logic^0,c
  1552   0014A0  6A56               	clrf	(??_gpio_pin_write_logic+1)^0,c
  1553                           
  1554                           ; Switch on 2 bytes has been partitioned into a top level switch of size 1, and 1 sub-sw
      +                          itches
  1555                           ; Switch size 1, requested type "simple"
  1556                           ; Number of cases is 1, Range of values is 0 to 0
  1557                           ; switch strategies available:
  1558                           ; Name         Instructions Cycles
  1559                           ; simple_byte            4     3 (average)
  1560                           ;	Chosen strategy is simple_byte
  1561   0014A2  5056               	movf	(??_gpio_pin_write_logic+1)^0,w,c
  1562   0014A4  0A00               	xorlw	0	; case 0
  1563   0014A6  B4D8               	btfsc	status,2,c
  1564   0014A8  EF58  F00A         	goto	l5600
  1565   0014AC  EFF9  F009         	goto	l4382
  1566   0014B0                     l5600:
  1567                           
  1568                           ; Switch size 1, requested type "simple"
  1569                           ; Number of cases is 2, Range of values is 0 to 1
  1570                           ; switch strategies available:
  1571                           ; Name         Instructions Cycles
  1572                           ; simple_byte            7     4 (average)
  1573                           ;	Chosen strategy is simple_byte
  1574   0014B0  5055               	movf	??_gpio_pin_write_logic^0,w,c
  1575   0014B2  0A00               	xorlw	0	; case 0
  1576   0014B4  B4D8               	btfsc	status,2,c
  1577   0014B6  EFFB  F009         	goto	l4384
  1578   0014BA  0A01               	xorlw	1	; case 1
  1579   0014BC  B4D8               	btfsc	status,2,c
  1580   0014BE  EF26  F00A         	goto	l4386
  1581   0014C2  EFF9  F009         	goto	l4382
  1582   0014C6                     l719:
  1583   0014C6  0012               	return		;funcret
  1584   0014C8                     __end_of_gpio_pin_write_logic:
  1585                           	callstack 0
  1586                           
  1587 ;; *************** function _gpio_pin_direction_initialize *****************
  1588 ;; Defined at:
  1589 ;;		line 22 in file "MCAL_layer/GPIO/hal_gpio.c"
  1590 ;; Parameters:    Size  Location     Type
  1591 ;;  pin             1    3[COMRAM] PTR const struct .
  1592 ;;		 -> ccp2(9), led_initialize@led_pin(1), 
  1593 ;; Auto vars:     Size  Location     Type
  1594 ;;  RET             1    9[COMRAM] unsigned char 
  1595 ;; Return value:  Size  Location     Type
  1596 ;;                  1    wreg      unsigned char 
  1597 ;; Registers used:
  1598 ;;		wreg, fsr2l, fsr2h, status,2, status,0, prodl, prodh
  1599 ;; Tracked objects:
  1600 ;;		On entry : 0/0
  1601 ;;		On exit  : 0/0
  1602 ;;		Unchanged: 0/0
  1603 ;; Data sizes:     COMRAM   BANK0   BANK1   BANK2   BANK3   BANK4   BANK5   BANK6   BANK7   BANK8   BANK9  BANK10  BANK1
      +1  BANK12  BANK13  BANK14  BANK15
  1604 ;;      Params:         1       0       0       0       0       0       0       0       0       0       0       0       
      +0       0       0       0       0
  1605 ;;      Locals:         1       0       0       0       0       0       0       0       0       0       0       0       
      +0       0       0       0       0
  1606 ;;      Temps:          5       0       0       0       0       0       0       0       0       0       0       0       
      +0       0       0       0       0
  1607 ;;      Totals:         7       0       0       0       0       0       0       0       0       0       0       0       
      +0       0       0       0       0
  1608 ;;Total ram usage:        7 bytes
  1609 ;; Hardware stack levels used: 1
  1610 ;; Hardware stack levels required when called: 3
  1611 ;; This function calls:
  1612 ;;		Nothing
  1613 ;; This function is called by:
  1614 ;;		_gpio_pin_initialize
  1615 ;;		_button_initialize
  1616 ;;		_keypad_initialize
  1617 ;;		_Intx_Interrupts_Set_Pin
  1618 ;;		_RBX_Interrupts_Set_Pin
  1619 ;; This function uses a non-reentrant model
  1620 ;;
  1621                           
  1622                           	psect	text10
  1623   00129C                     __ptext10:
  1624                           	callstack 0
  1625   00129C                     _gpio_pin_direction_initialize:
  1626                           	callstack 25
  1627   00129C                     
  1628                           ;MCAL_layer/GPIO/hal_gpio.c: 22: Std_ReturnType gpio_pin_direction_initialize(const pin_
      +                          configration *pin);MCAL_layer/GPIO/hal_gpio.c: 23: {;MCAL_layer/GPIO/hal_gpio.c: 24:    
      +                           Std_ReturnType RET = (Std_ReturnType)0x01;
  1629   00129C  0E01               	movlw	1
  1630   00129E  6E59               	movwf	gpio_pin_direction_initialize@RET^0,c
  1631                           
  1632                           ;MCAL_layer/GPIO/hal_gpio.c: 25:     if( (((void*)0)==pin) || (pin->pin > 8 -1) )
  1633   0012A0  5053               	movf	gpio_pin_direction_initialize@pin^0,w,c
  1634   0012A2  B4D8               	btfsc	status,2,c
  1635   0012A4  EF56  F009         	goto	u2891
  1636   0012A8  EF58  F009         	goto	u2890
  1637   0012AC                     u2891:
  1638   0012AC  EF68  F009         	goto	l4400
  1639   0012B0                     u2890:
  1640   0012B0  5053               	movf	gpio_pin_direction_initialize@pin^0,w,c
  1641   0012B2  6ED9               	movwf	fsr2l,c
  1642   0012B4  6ADA               	clrf	fsr2h,c
  1643   0012B6  30DF               	rrcf	223,w,c
  1644   0012B8  32E8               	rrcf	wreg,f,c
  1645   0012BA  32E8               	rrcf	wreg,f,c
  1646   0012BC  0B07               	andlw	7
  1647   0012BE  6E54               	movwf	??_gpio_pin_direction_initialize^0,c
  1648   0012C0  0E07               	movlw	7
  1649   0012C2  6454               	cpfsgt	??_gpio_pin_direction_initialize^0,c
  1650   0012C4  EF66  F009         	goto	u2901
  1651   0012C8  EF68  F009         	goto	u2900
  1652   0012CC                     u2901:
  1653   0012CC  EFBF  F009         	goto	l4408
  1654   0012D0                     u2900:
  1655   0012D0                     l4400:
  1656                           
  1657                           ;MCAL_layer/GPIO/hal_gpio.c: 26:     {;MCAL_layer/GPIO/hal_gpio.c: 27:         RET = (St
      +                          d_ReturnType)0x00;
  1658   0012D0  0E00               	movlw	0
  1659   0012D2  6E59               	movwf	gpio_pin_direction_initialize@RET^0,c
  1660                           
  1661                           ;MCAL_layer/GPIO/hal_gpio.c: 28:     }
  1662   0012D4  EFDF  F009         	goto	l4410
  1663   0012D8                     l4402:
  1664                           
  1665                           ;MCAL_layer/GPIO/hal_gpio.c: 34:             *TRIS_REGESTERS[pin->port]&=~((uint8)1<<pin
      +                          ->pin);
  1666   0012D8  5053               	movf	gpio_pin_direction_initialize@pin^0,w,c
  1667   0012DA  6ED9               	movwf	fsr2l,c
  1668   0012DC  6ADA               	clrf	fsr2h,c
  1669   0012DE  30DF               	rrcf	223,w,c
  1670   0012E0  32E8               	rrcf	wreg,f,c
  1671   0012E2  32E8               	rrcf	wreg,f,c
  1672   0012E4  0B07               	andlw	7
  1673   0012E6  6E54               	movwf	??_gpio_pin_direction_initialize^0,c
  1674   0012E8  0E01               	movlw	1
  1675   0012EA  6E55               	movwf	(??_gpio_pin_direction_initialize+1)^0,c
  1676   0012EC  2A54               	incf	??_gpio_pin_direction_initialize^0,f,c
  1677   0012EE  EF7B  F009         	goto	u2914
  1678   0012F2                     u2915:
  1679   0012F2  90D8               	bcf	status,0,c
  1680   0012F4  3655               	rlcf	(??_gpio_pin_direction_initialize+1)^0,f,c
  1681   0012F6                     u2914:
  1682   0012F6  2E54               	decfsz	??_gpio_pin_direction_initialize^0,f,c
  1683   0012F8  EF79  F009         	goto	u2915
  1684   0012FC  5055               	movf	(??_gpio_pin_direction_initialize+1)^0,w,c
  1685   0012FE  0AFF               	xorlw	255
  1686   001300  6E56               	movwf	(??_gpio_pin_direction_initialize+2)^0,c
  1687   001302  5053               	movf	gpio_pin_direction_initialize@pin^0,w,c
  1688   001304  6ED9               	movwf	fsr2l,c
  1689   001306  6ADA               	clrf	fsr2h,c
  1690   001308  50DF               	movf	223,w,c
  1691   00130A  0B07               	andlw	7
  1692   00130C  0D02               	mullw	2
  1693   00130E  50F3               	movf	243,w,c
  1694   001310  0F6A               	addlw	low _TRIS_REGESTERS
  1695   001312  6ED9               	movwf	fsr2l,c
  1696   001314  6ADA               	clrf	fsr2h,c
  1697   001316  CFDE F057          	movff	postinc2,??_gpio_pin_direction_initialize+3
  1698   00131A  CFDD F058          	movff	postdec2,??_gpio_pin_direction_initialize+4
  1699   00131E  C057  FFD9         	movff	??_gpio_pin_direction_initialize+3,fsr2l
  1700   001322  C058  FFDA         	movff	??_gpio_pin_direction_initialize+4,fsr2h
  1701   001326  5056               	movf	(??_gpio_pin_direction_initialize+2)^0,w,c
  1702   001328  16DF               	andwf	indf2,f,c
  1703                           
  1704                           ;MCAL_layer/GPIO/hal_gpio.c: 35:             break;
  1705   00132A  EFDF  F009         	goto	l4410
  1706   00132E                     l4404:
  1707                           
  1708                           ;MCAL_layer/GPIO/hal_gpio.c: 37:             *TRIS_REGESTERS[pin->port]|=((uint8)1<<pin-
      +                          >pin);
  1709   00132E  5053               	movf	gpio_pin_direction_initialize@pin^0,w,c
  1710   001330  6ED9               	movwf	fsr2l,c
  1711   001332  6ADA               	clrf	fsr2h,c
  1712   001334  30DF               	rrcf	223,w,c
  1713   001336  32E8               	rrcf	wreg,f,c
  1714   001338  32E8               	rrcf	wreg,f,c
  1715   00133A  0B07               	andlw	7
  1716   00133C  6E54               	movwf	??_gpio_pin_direction_initialize^0,c
  1717   00133E  0E01               	movlw	1
  1718   001340  6E55               	movwf	(??_gpio_pin_direction_initialize+1)^0,c
  1719   001342  2A54               	incf	??_gpio_pin_direction_initialize^0,f,c
  1720   001344  EFA6  F009         	goto	u2924
  1721   001348                     u2925:
  1722   001348  90D8               	bcf	status,0,c
  1723   00134A  3655               	rlcf	(??_gpio_pin_direction_initialize+1)^0,f,c
  1724   00134C                     u2924:
  1725   00134C  2E54               	decfsz	??_gpio_pin_direction_initialize^0,f,c
  1726   00134E  EFA4  F009         	goto	u2925
  1727   001352  5053               	movf	gpio_pin_direction_initialize@pin^0,w,c
  1728   001354  6ED9               	movwf	fsr2l,c
  1729   001356  6ADA               	clrf	fsr2h,c
  1730   001358  50DF               	movf	223,w,c
  1731   00135A  0B07               	andlw	7
  1732   00135C  0D02               	mullw	2
  1733   00135E  50F3               	movf	243,w,c
  1734   001360  0F6A               	addlw	low _TRIS_REGESTERS
  1735   001362  6ED9               	movwf	fsr2l,c
  1736   001364  6ADA               	clrf	fsr2h,c
  1737   001366  CFDE F056          	movff	postinc2,??_gpio_pin_direction_initialize+2
  1738   00136A  CFDD F057          	movff	postdec2,??_gpio_pin_direction_initialize+3
  1739   00136E  C056  FFD9         	movff	??_gpio_pin_direction_initialize+2,fsr2l
  1740   001372  C057  FFDA         	movff	??_gpio_pin_direction_initialize+3,fsr2h
  1741   001376  5055               	movf	(??_gpio_pin_direction_initialize+1)^0,w,c
  1742   001378  12DF               	iorwf	indf2,f,c
  1743                           
  1744                           ;MCAL_layer/GPIO/hal_gpio.c: 38:             break;
  1745   00137A  EFDF  F009         	goto	l4410
  1746   00137E                     l4408:
  1747   00137E  5053               	movf	gpio_pin_direction_initialize@pin^0,w,c
  1748   001380  6ED9               	movwf	fsr2l,c
  1749   001382  6ADA               	clrf	fsr2h,c
  1750   001384  BEDF               	btfsc	indf2,7,c
  1751   001386  EFC7  F009         	goto	u2931
  1752   00138A  EFCA  F009         	goto	u2930
  1753   00138E                     u2931:
  1754   00138E  0E01               	movlw	1
  1755   001390  EFCB  F009         	goto	u2940
  1756   001394                     u2930:
  1757   001394  0E00               	movlw	0
  1758   001396                     u2940:
  1759   001396  6E54               	movwf	??_gpio_pin_direction_initialize^0,c
  1760   001398  6A55               	clrf	(??_gpio_pin_direction_initialize+1)^0,c
  1761                           
  1762                           ; Switch on 2 bytes has been partitioned into a top level switch of size 1, and 1 sub-sw
      +                          itches
  1763                           ; Switch size 1, requested type "simple"
  1764                           ; Number of cases is 1, Range of values is 0 to 0
  1765                           ; switch strategies available:
  1766                           ; Name         Instructions Cycles
  1767                           ; simple_byte            4     3 (average)
  1768                           ;	Chosen strategy is simple_byte
  1769   00139A  5055               	movf	(??_gpio_pin_direction_initialize+1)^0,w,c
  1770   00139C  0A00               	xorlw	0	; case 0
  1771   00139E  B4D8               	btfsc	status,2,c
  1772   0013A0  EFD4  F009         	goto	l5602
  1773   0013A4  EF68  F009         	goto	l4400
  1774   0013A8                     l5602:
  1775                           
  1776                           ; Switch size 1, requested type "simple"
  1777                           ; Number of cases is 2, Range of values is 0 to 1
  1778                           ; switch strategies available:
  1779                           ; Name         Instructions Cycles
  1780                           ; simple_byte            7     4 (average)
  1781                           ;	Chosen strategy is simple_byte
  1782   0013A8  5054               	movf	??_gpio_pin_direction_initialize^0,w,c
  1783   0013AA  0A00               	xorlw	0	; case 0
  1784   0013AC  B4D8               	btfsc	status,2,c
  1785   0013AE  EF6C  F009         	goto	l4402
  1786   0013B2  0A01               	xorlw	1	; case 1
  1787   0013B4  B4D8               	btfsc	status,2,c
  1788   0013B6  EF97  F009         	goto	l4404
  1789   0013BA  EF68  F009         	goto	l4400
  1790   0013BE                     l4410:
  1791                           
  1792                           ;MCAL_layer/GPIO/hal_gpio.c: 43:  return RET;
  1793   0013BE  5059               	movf	gpio_pin_direction_initialize@RET^0,w,c
  1794   0013C0  0012               	return		;funcret
  1795   0013C2                     __end_of_gpio_pin_direction_initialize:
  1796                           	callstack 0
  1797                           
  1798 ;; *************** function _CCP_Interrupt_Config *****************
  1799 ;; Defined at:
  1800 ;;		line 301 in file "CCP.c"
  1801 ;; Parameters:    Size  Location     Type
  1802 ;;  _ccp_obj        1    3[COMRAM] PTR const struct .
  1803 ;;		 -> ccp2(9), 
  1804 ;; Auto vars:     Size  Location     Type
  1805 ;;		None
  1806 ;; Return value:  Size  Location     Type
  1807 ;;                  1    wreg      void 
  1808 ;; Registers used:
  1809 ;;		wreg, fsr2l, fsr2h, status,2, status,0
  1810 ;; Tracked objects:
  1811 ;;		On entry : 0/0
  1812 ;;		On exit  : 0/0
  1813 ;;		Unchanged: 0/0
  1814 ;; Data sizes:     COMRAM   BANK0   BANK1   BANK2   BANK3   BANK4   BANK5   BANK6   BANK7   BANK8   BANK9  BANK10  BANK1
      +1  BANK12  BANK13  BANK14  BANK15
  1815 ;;      Params:         1       0       0       0       0       0       0       0       0       0       0       0       
      +0       0       0       0       0
  1816 ;;      Locals:         0       0       0       0       0       0       0       0       0       0       0       0       
      +0       0       0       0       0
  1817 ;;      Temps:          0       0       0       0       0       0       0       0       0       0       0       0       
      +0       0       0       0       0
  1818 ;;      Totals:         1       0       0       0       0       0       0       0       0       0       0       0       
      +0       0       0       0       0
  1819 ;;Total ram usage:        1 bytes
  1820 ;; Hardware stack levels used: 1
  1821 ;; Hardware stack levels required when called: 3
  1822 ;; This function calls:
  1823 ;;		Nothing
  1824 ;; This function is called by:
  1825 ;;		_CCP_Init
  1826 ;; This function uses a non-reentrant model
  1827 ;;
  1828                           
  1829                           	psect	text11
  1830   0017A0                     __ptext11:
  1831                           	callstack 0
  1832   0017A0                     _CCP_Interrupt_Config:
  1833                           	callstack 26
  1834   0017A0                     
  1835                           ;CCP.c: 301: static void CCP_Interrupt_Config(const CCP *_ccp_obj);CCP.c: 302: {;CCP.c: 
      +                          305:        PIE1bits.CCP1IE = 1;
  1836   0017A0  849D               	bsf	157,2,c	;volatile
  1837                           
  1838                           ;CCP.c: 306:        PIR1bits.CCP1IF = 0;
  1839   0017A2  949E               	bcf	158,2,c	;volatile
  1840                           
  1841                           ;CCP.c: 309:        INTCONbits.GIE = 1;
  1842   0017A4  8EF2               	bsf	242,7,c	;volatile
  1843                           
  1844                           ;CCP.c: 310:        INTCONbits.PEIE = 1;
  1845   0017A6  8CF2               	bsf	242,6,c	;volatile
  1846                           
  1847                           ;CCP.c: 311:        RCONbits.IPEN = 0;
  1848   0017A8  9ED0               	bcf	208,7,c	;volatile
  1849   0017AA                     
  1850                           ;CCP.c: 328:          CCP1_InterruptHandler=_ccp_obj->CCP1_InterruptHandler;
  1851   0017AA  5053               	movf	CCP_Interrupt_Config@_ccp_obj^0,w,c
  1852   0017AC  6ED9               	movwf	fsr2l,c
  1853   0017AE  6ADA               	clrf	fsr2h,c
  1854   0017B0  0E05               	movlw	5
  1855   0017B2  26D9               	addwf	fsr2l,f,c
  1856   0017B4  CFDE F029          	movff	postinc2,_CCP1_InterruptHandler
  1857   0017B8  CFDD F02A          	movff	postdec2,_CCP1_InterruptHandler+1
  1858   0017BC                     
  1859                           ;CCP.c: 333:        PIE2bits.CCP2IE = 1;
  1860   0017BC  80A0               	bsf	160,0,c	;volatile
  1861   0017BE                     
  1862                           ;CCP.c: 334:        PIR2bits.CCP2IF = 0;
  1863   0017BE  90A1               	bcf	161,0,c	;volatile
  1864   0017C0                     
  1865                           ;CCP.c: 337:        INTCONbits.GIE = 1;
  1866   0017C0  8EF2               	bsf	242,7,c	;volatile
  1867   0017C2                     
  1868                           ;CCP.c: 338:        INTCONbits.PEIE = 1;
  1869   0017C2  8CF2               	bsf	242,6,c	;volatile
  1870   0017C4                     
  1871                           ;CCP.c: 339:        RCONbits.IPEN = 0;
  1872   0017C4  9ED0               	bcf	208,7,c	;volatile
  1873                           
  1874                           ;CCP.c: 356:          CCP2_InterruptHandler=_ccp_obj->CCP2_InterruptHandler;
  1875   0017C6  5053               	movf	CCP_Interrupt_Config@_ccp_obj^0,w,c
  1876   0017C8  6ED9               	movwf	fsr2l,c
  1877   0017CA  6ADA               	clrf	fsr2h,c
  1878   0017CC  0E07               	movlw	7
  1879   0017CE  26D9               	addwf	fsr2l,f,c
  1880   0017D0  CFDE F027          	movff	postinc2,_CCP2_InterruptHandler
  1881   0017D4  CFDD F028          	movff	postdec2,_CCP2_InterruptHandler+1
  1882   0017D8  0012               	return		;funcret
  1883   0017DA                     __end_of_CCP_Interrupt_Config:
  1884                           	callstack 0
  1885                           
  1886 ;; *************** function _CCP_Compare_Mode_Config *****************
  1887 ;; Defined at:
  1888 ;;		line 272 in file "CCP.c"
  1889 ;; Parameters:    Size  Location     Type
  1890 ;;  _ccp_obj        1    5[COMRAM] PTR const struct .
  1891 ;;		 -> ccp2(9), 
  1892 ;; Auto vars:     Size  Location     Type
  1893 ;;  ret             1    0        unsigned char 
  1894 ;; Return value:  Size  Location     Type
  1895 ;;                  1    wreg      unsigned char 
  1896 ;; Registers used:
  1897 ;;		wreg, fsr2l, fsr2h, status,2, status,0, cstack
  1898 ;; Tracked objects:
  1899 ;;		On entry : 0/0
  1900 ;;		On exit  : 0/0
  1901 ;;		Unchanged: 0/0
  1902 ;; Data sizes:     COMRAM   BANK0   BANK1   BANK2   BANK3   BANK4   BANK5   BANK6   BANK7   BANK8   BANK9  BANK10  BANK1
      +1  BANK12  BANK13  BANK14  BANK15
  1903 ;;      Params:         1       0       0       0       0       0       0       0       0       0       0       0       
      +0       0       0       0       0
  1904 ;;      Locals:         0       0       0       0       0       0       0       0       0       0       0       0       
      +0       0       0       0       0
  1905 ;;      Temps:          2       0       0       0       0       0       0       0       0       0       0       0       
      +0       0       0       0       0
  1906 ;;      Totals:         3       0       0       0       0       0       0       0       0       0       0       0       
      +0       0       0       0       0
  1907 ;;Total ram usage:        3 bytes
  1908 ;; Hardware stack levels used: 1
  1909 ;; Hardware stack levels required when called: 4
  1910 ;; This function calls:
  1911 ;;		_CCP_Mode_Timer_Select
  1912 ;; This function is called by:
  1913 ;;		_CCP_Init
  1914 ;; This function uses a non-reentrant model
  1915 ;;
  1916                           
  1917                           	psect	text12
  1918   001016                     __ptext12:
  1919                           	callstack 0
  1920   001016                     _CCP_Compare_Mode_Config:
  1921                           	callstack 25
  1922   001016                     
  1923                           ;CCP.c: 275:     if(CCP1_INST == _ccp_obj->ccp_inst){
  1924   001016  5055               	movf	CCP_Compare_Mode_Config@_ccp_obj^0,w,c
  1925   001018  6ED9               	movwf	fsr2l,c
  1926   00101A  6ADA               	clrf	fsr2h,c
  1927   00101C  50DF               	movf	indf2,w,c
  1928   00101E  A4D8               	btfss	status,2,c
  1929   001020  EF14  F008         	goto	u3101
  1930   001024  EF16  F008         	goto	u3100
  1931   001028                     u3101:
  1932   001028  EF5E  F008         	goto	l4590
  1933   00102C                     u3100:
  1934   00102C  EF38  F008         	goto	l4588
  1935   001030                     l4576:
  1936   001030  50BD               	movf	189,w,c	;volatile
  1937   001032  0BF0               	andlw	-16
  1938   001034  0908               	iorlw	8
  1939   001036  6EBD               	movwf	189,c	;volatile
  1940   001038  EFAF  F008         	goto	l4608
  1941   00103C                     l4578:
  1942   00103C  50BD               	movf	189,w,c	;volatile
  1943   00103E  0BF0               	andlw	-16
  1944   001040  0909               	iorlw	9
  1945   001042  6EBD               	movwf	189,c	;volatile
  1946   001044  EFAF  F008         	goto	l4608
  1947   001048                     l4580:
  1948   001048  50BD               	movf	189,w,c	;volatile
  1949   00104A  0BF0               	andlw	-16
  1950   00104C  0902               	iorlw	2
  1951   00104E  6EBD               	movwf	189,c	;volatile
  1952   001050  EFAF  F008         	goto	l4608
  1953   001054                     l4582:
  1954   001054  50BD               	movf	189,w,c	;volatile
  1955   001056  0BF0               	andlw	-16
  1956   001058  090A               	iorlw	10
  1957   00105A  6EBD               	movwf	189,c	;volatile
  1958   00105C  EFAF  F008         	goto	l4608
  1959   001060                     l4584:
  1960   001060  50BD               	movf	189,w,c	;volatile
  1961   001062  0BF0               	andlw	-16
  1962   001064  090B               	iorlw	11
  1963   001066  6EBD               	movwf	189,c	;volatile
  1964   001068  EFAF  F008         	goto	l4608
  1965   00106C                     l4586:
  1966                           
  1967                           ;CCP.c: 284:         }
  1968   00106C  EFAF  F008         	goto	l4608
  1969   001070                     l4588:
  1970   001070  5055               	movf	CCP_Compare_Mode_Config@_ccp_obj^0,w,c
  1971   001072  6ED9               	movwf	fsr2l,c
  1972   001074  6ADA               	clrf	fsr2h,c
  1973   001076  0E02               	movlw	2
  1974   001078  26D9               	addwf	fsr2l,f,c
  1975   00107A  50DF               	movf	indf2,w,c
  1976   00107C  6E56               	movwf	??_CCP_Compare_Mode_Config^0,c
  1977   00107E  6A57               	clrf	(??_CCP_Compare_Mode_Config+1)^0,c
  1978                           
  1979                           ; Switch on 2 bytes has been partitioned into a top level switch of size 1, and 1 sub-sw
      +                          itches
  1980                           ; Switch size 1, requested type "simple"
  1981                           ; Number of cases is 1, Range of values is 0 to 0
  1982                           ; switch strategies available:
  1983                           ; Name         Instructions Cycles
  1984                           ; simple_byte            4     3 (average)
  1985                           ;	Chosen strategy is simple_byte
  1986   001080  5057               	movf	(??_CCP_Compare_Mode_Config+1)^0,w,c
  1987   001082  0A00               	xorlw	0	; case 0
  1988   001084  B4D8               	btfsc	status,2,c
  1989   001086  EF47  F008         	goto	l5604
  1990   00108A  EF36  F008         	goto	l4586
  1991   00108E                     l5604:
  1992                           
  1993                           ; Switch size 1, requested type "simple"
  1994                           ; Number of cases is 5, Range of values is 2 to 11
  1995                           ; switch strategies available:
  1996                           ; Name         Instructions Cycles
  1997                           ; simple_byte           16     9 (average)
  1998                           ;	Chosen strategy is simple_byte
  1999   00108E  5056               	movf	??_CCP_Compare_Mode_Config^0,w,c
  2000   001090  0A02               	xorlw	2	; case 2
  2001   001092  B4D8               	btfsc	status,2,c
  2002   001094  EF24  F008         	goto	l4580
  2003   001098  0A0A               	xorlw	10	; case 8
  2004   00109A  B4D8               	btfsc	status,2,c
  2005   00109C  EF18  F008         	goto	l4576
  2006   0010A0  0A01               	xorlw	1	; case 9
  2007   0010A2  B4D8               	btfsc	status,2,c
  2008   0010A4  EF1E  F008         	goto	l4578
  2009   0010A8  0A03               	xorlw	3	; case 10
  2010   0010AA  B4D8               	btfsc	status,2,c
  2011   0010AC  EF2A  F008         	goto	l4582
  2012   0010B0  0A01               	xorlw	1	; case 11
  2013   0010B2  B4D8               	btfsc	status,2,c
  2014   0010B4  EF30  F008         	goto	l4584
  2015   0010B8  EF36  F008         	goto	l4586
  2016   0010BC                     l4590:
  2017   0010BC  5055               	movf	CCP_Compare_Mode_Config@_ccp_obj^0,w,c
  2018   0010BE  6ED9               	movwf	fsr2l,c
  2019   0010C0  6ADA               	clrf	fsr2h,c
  2020   0010C2  04DE               	decf	postinc2,w,c
  2021   0010C4  A4D8               	btfss	status,2,c
  2022   0010C6  EF67  F008         	goto	u3111
  2023   0010CA  EF69  F008         	goto	u3110
  2024   0010CE                     u3111:
  2025   0010CE  EFAF  F008         	goto	l4608
  2026   0010D2                     u3110:
  2027   0010D2  EF89  F008         	goto	l4606
  2028   0010D6                     l4594:
  2029   0010D6  50BA               	movf	186,w,c	;volatile
  2030   0010D8  0BF0               	andlw	-16
  2031   0010DA  0908               	iorlw	8
  2032   0010DC  6EBA               	movwf	186,c	;volatile
  2033   0010DE  EFAF  F008         	goto	l4608
  2034   0010E2                     l4596:
  2035   0010E2  50BA               	movf	186,w,c	;volatile
  2036   0010E4  0BF0               	andlw	-16
  2037   0010E6  0909               	iorlw	9
  2038   0010E8  6EBA               	movwf	186,c	;volatile
  2039   0010EA  EFAF  F008         	goto	l4608
  2040   0010EE                     l4598:
  2041   0010EE  50BA               	movf	186,w,c	;volatile
  2042   0010F0  0BF0               	andlw	-16
  2043   0010F2  0902               	iorlw	2
  2044   0010F4  6EBA               	movwf	186,c	;volatile
  2045   0010F6  EFAF  F008         	goto	l4608
  2046   0010FA                     l4600:
  2047   0010FA  50BA               	movf	186,w,c	;volatile
  2048   0010FC  0BF0               	andlw	-16
  2049   0010FE  090A               	iorlw	10
  2050   001100  6EBA               	movwf	186,c	;volatile
  2051   001102  EFAF  F008         	goto	l4608
  2052   001106                     l4602:
  2053   001106  50BA               	movf	186,w,c	;volatile
  2054   001108  0BF0               	andlw	-16
  2055   00110A  090B               	iorlw	11
  2056   00110C  6EBA               	movwf	186,c	;volatile
  2057   00110E  EFAF  F008         	goto	l4608
  2058   001112                     l4606:
  2059   001112  5055               	movf	CCP_Compare_Mode_Config@_ccp_obj^0,w,c
  2060   001114  6ED9               	movwf	fsr2l,c
  2061   001116  6ADA               	clrf	fsr2h,c
  2062   001118  0E02               	movlw	2
  2063   00111A  26D9               	addwf	fsr2l,f,c
  2064   00111C  50DF               	movf	indf2,w,c
  2065   00111E  6E56               	movwf	??_CCP_Compare_Mode_Config^0,c
  2066   001120  6A57               	clrf	(??_CCP_Compare_Mode_Config+1)^0,c
  2067                           
  2068                           ; Switch on 2 bytes has been partitioned into a top level switch of size 1, and 1 sub-sw
      +                          itches
  2069                           ; Switch size 1, requested type "simple"
  2070                           ; Number of cases is 1, Range of values is 0 to 0
  2071                           ; switch strategies available:
  2072                           ; Name         Instructions Cycles
  2073                           ; simple_byte            4     3 (average)
  2074                           ;	Chosen strategy is simple_byte
  2075   001122  5057               	movf	(??_CCP_Compare_Mode_Config+1)^0,w,c
  2076   001124  0A00               	xorlw	0	; case 0
  2077   001126  B4D8               	btfsc	status,2,c
  2078   001128  EF98  F008         	goto	l5606
  2079   00112C  EF36  F008         	goto	l4586
  2080   001130                     l5606:
  2081                           
  2082                           ; Switch size 1, requested type "simple"
  2083                           ; Number of cases is 5, Range of values is 2 to 11
  2084                           ; switch strategies available:
  2085                           ; Name         Instructions Cycles
  2086                           ; simple_byte           16     9 (average)
  2087                           ;	Chosen strategy is simple_byte
  2088   001130  5056               	movf	??_CCP_Compare_Mode_Config^0,w,c
  2089   001132  0A02               	xorlw	2	; case 2
  2090   001134  B4D8               	btfsc	status,2,c
  2091   001136  EF77  F008         	goto	l4598
  2092   00113A  0A0A               	xorlw	10	; case 8
  2093   00113C  B4D8               	btfsc	status,2,c
  2094   00113E  EF6B  F008         	goto	l4594
  2095   001142  0A01               	xorlw	1	; case 9
  2096   001144  B4D8               	btfsc	status,2,c
  2097   001146  EF71  F008         	goto	l4596
  2098   00114A  0A03               	xorlw	3	; case 10
  2099   00114C  B4D8               	btfsc	status,2,c
  2100   00114E  EF7D  F008         	goto	l4600
  2101   001152  0A01               	xorlw	1	; case 11
  2102   001154  B4D8               	btfsc	status,2,c
  2103   001156  EF83  F008         	goto	l4602
  2104   00115A  EF36  F008         	goto	l4586
  2105   00115E                     l4608:
  2106                           
  2107                           ;CCP.c: 297:      CCP_Mode_Timer_Select(_ccp_obj);
  2108   00115E  C055  F053         	movff	CCP_Compare_Mode_Config@_ccp_obj,CCP_Mode_Timer_Select@_ccp_obj
  2109   001162  ECFD  F00A         	call	_CCP_Mode_Timer_Select	;wreg free
  2110   001166  0012               	return		;funcret
  2111   001168                     __end_of_CCP_Compare_Mode_Config:
  2112                           	callstack 0
  2113                           
  2114 ;; *************** function _CCP_Capture_Mode_Config *****************
  2115 ;; Defined at:
  2116 ;;		line 244 in file "CCP.c"
  2117 ;; Parameters:    Size  Location     Type
  2118 ;;  _ccp_obj        1    5[COMRAM] PTR const struct .
  2119 ;;		 -> ccp2(9), 
  2120 ;; Auto vars:     Size  Location     Type
  2121 ;;  ret             1    8[COMRAM] unsigned char 
  2122 ;; Return value:  Size  Location     Type
  2123 ;;                  1    wreg      unsigned char 
  2124 ;; Registers used:
  2125 ;;		wreg, fsr2l, fsr2h, status,2, status,0, cstack
  2126 ;; Tracked objects:
  2127 ;;		On entry : 0/0
  2128 ;;		On exit  : 0/0
  2129 ;;		Unchanged: 0/0
  2130 ;; Data sizes:     COMRAM   BANK0   BANK1   BANK2   BANK3   BANK4   BANK5   BANK6   BANK7   BANK8   BANK9  BANK10  BANK1
      +1  BANK12  BANK13  BANK14  BANK15
  2131 ;;      Params:         1       0       0       0       0       0       0       0       0       0       0       0       
      +0       0       0       0       0
  2132 ;;      Locals:         1       0       0       0       0       0       0       0       0       0       0       0       
      +0       0       0       0       0
  2133 ;;      Temps:          2       0       0       0       0       0       0       0       0       0       0       0       
      +0       0       0       0       0
  2134 ;;      Totals:         4       0       0       0       0       0       0       0       0       0       0       0       
      +0       0       0       0       0
  2135 ;;Total ram usage:        4 bytes
  2136 ;; Hardware stack levels used: 1
  2137 ;; Hardware stack levels required when called: 4
  2138 ;; This function calls:
  2139 ;;		_CCP_Mode_Timer_Select
  2140 ;; This function is called by:
  2141 ;;		_CCP_Init
  2142 ;; This function uses a non-reentrant model
  2143 ;;
  2144                           
  2145                           	psect	text13
  2146   001168                     __ptext13:
  2147                           	callstack 0
  2148   001168                     _CCP_Capture_Mode_Config:
  2149                           	callstack 25
  2150   001168                     
  2151                           ;CCP.c: 244: static Std_ReturnType CCP_Capture_Mode_Config(const CCP *_ccp_obj);CCP.c: 2
      +                          45: {;CCP.c: 246:     Std_ReturnType ret = (Std_ReturnType)0x01;
  2152   001168  0E01               	movlw	1
  2153   00116A  6E58               	movwf	CCP_Capture_Mode_Config@ret^0,c
  2154   00116C                     
  2155                           ;CCP.c: 248:     if(CCP1_INST == _ccp_obj->ccp_inst){
  2156   00116C  5055               	movf	CCP_Capture_Mode_Config@_ccp_obj^0,w,c
  2157   00116E  6ED9               	movwf	fsr2l,c
  2158   001170  6ADA               	clrf	fsr2h,c
  2159   001172  50DF               	movf	indf2,w,c
  2160   001174  A4D8               	btfss	status,2,c
  2161   001176  EFBF  F008         	goto	u3081
  2162   00117A  EFC1  F008         	goto	u3080
  2163   00117E                     u3081:
  2164   00117E  EF01  F009         	goto	l4540
  2165   001182                     u3080:
  2166   001182  EFDF  F008         	goto	l4538
  2167   001186                     l4528:
  2168   001186  50BD               	movf	189,w,c	;volatile
  2169   001188  0BF0               	andlw	-16
  2170   00118A  0904               	iorlw	4
  2171   00118C  6EBD               	movwf	189,c	;volatile
  2172   00118E  EF48  F009         	goto	l4556
  2173   001192                     l4530:
  2174   001192  50BD               	movf	189,w,c	;volatile
  2175   001194  0BF0               	andlw	-16
  2176   001196  0905               	iorlw	5
  2177   001198  6EBD               	movwf	189,c	;volatile
  2178   00119A  EF48  F009         	goto	l4556
  2179   00119E                     l4532:
  2180   00119E  50BD               	movf	189,w,c	;volatile
  2181   0011A0  0BF0               	andlw	-16
  2182   0011A2  0906               	iorlw	6
  2183   0011A4  6EBD               	movwf	189,c	;volatile
  2184   0011A6  EF48  F009         	goto	l4556
  2185   0011AA                     l4534:
  2186   0011AA  50BD               	movf	189,w,c	;volatile
  2187   0011AC  0BF0               	andlw	-16
  2188   0011AE  0907               	iorlw	7
  2189   0011B0  6EBD               	movwf	189,c	;volatile
  2190   0011B2  EF48  F009         	goto	l4556
  2191   0011B6                     l4536:
  2192   0011B6  0E00               	movlw	0
  2193   0011B8  6E58               	movwf	CCP_Capture_Mode_Config@ret^0,c
  2194                           
  2195                           ;CCP.c: 256:         }
  2196   0011BA  EF48  F009         	goto	l4556
  2197   0011BE                     l4538:
  2198   0011BE  5055               	movf	CCP_Capture_Mode_Config@_ccp_obj^0,w,c
  2199   0011C0  6ED9               	movwf	fsr2l,c
  2200   0011C2  6ADA               	clrf	fsr2h,c
  2201   0011C4  0E02               	movlw	2
  2202   0011C6  26D9               	addwf	fsr2l,f,c
  2203   0011C8  50DF               	movf	indf2,w,c
  2204   0011CA  6E56               	movwf	??_CCP_Capture_Mode_Config^0,c
  2205   0011CC  6A57               	clrf	(??_CCP_Capture_Mode_Config+1)^0,c
  2206                           
  2207                           ; Switch on 2 bytes has been partitioned into a top level switch of size 1, and 1 sub-sw
      +                          itches
  2208                           ; Switch size 1, requested type "simple"
  2209                           ; Number of cases is 1, Range of values is 0 to 0
  2210                           ; switch strategies available:
  2211                           ; Name         Instructions Cycles
  2212                           ; simple_byte            4     3 (average)
  2213                           ;	Chosen strategy is simple_byte
  2214   0011CE  5057               	movf	(??_CCP_Capture_Mode_Config+1)^0,w,c
  2215   0011D0  0A00               	xorlw	0	; case 0
  2216   0011D2  B4D8               	btfsc	status,2,c
  2217   0011D4  EFEE  F008         	goto	l5608
  2218   0011D8  EFDB  F008         	goto	l4536
  2219   0011DC                     l5608:
  2220                           
  2221                           ; Switch size 1, requested type "simple"
  2222                           ; Number of cases is 4, Range of values is 4 to 7
  2223                           ; switch strategies available:
  2224                           ; Name         Instructions Cycles
  2225                           ; simple_byte           13     7 (average)
  2226                           ;	Chosen strategy is simple_byte
  2227   0011DC  5056               	movf	??_CCP_Capture_Mode_Config^0,w,c
  2228   0011DE  0A04               	xorlw	4	; case 4
  2229   0011E0  B4D8               	btfsc	status,2,c
  2230   0011E2  EFC3  F008         	goto	l4528
  2231   0011E6  0A01               	xorlw	1	; case 5
  2232   0011E8  B4D8               	btfsc	status,2,c
  2233   0011EA  EFC9  F008         	goto	l4530
  2234   0011EE  0A03               	xorlw	3	; case 6
  2235   0011F0  B4D8               	btfsc	status,2,c
  2236   0011F2  EFCF  F008         	goto	l4532
  2237   0011F6  0A01               	xorlw	1	; case 7
  2238   0011F8  B4D8               	btfsc	status,2,c
  2239   0011FA  EFD5  F008         	goto	l4534
  2240   0011FE  EFDB  F008         	goto	l4536
  2241   001202                     l4540:
  2242   001202  5055               	movf	CCP_Capture_Mode_Config@_ccp_obj^0,w,c
  2243   001204  6ED9               	movwf	fsr2l,c
  2244   001206  6ADA               	clrf	fsr2h,c
  2245   001208  04DE               	decf	postinc2,w,c
  2246   00120A  A4D8               	btfss	status,2,c
  2247   00120C  EF0A  F009         	goto	u3091
  2248   001210  EF0C  F009         	goto	u3090
  2249   001214                     u3091:
  2250   001214  EF48  F009         	goto	l4556
  2251   001218                     u3090:
  2252   001218  EF26  F009         	goto	l4554
  2253   00121C                     l4544:
  2254   00121C  50BA               	movf	186,w,c	;volatile
  2255   00121E  0BF0               	andlw	-16
  2256   001220  0904               	iorlw	4
  2257   001222  6EBA               	movwf	186,c	;volatile
  2258   001224  EF48  F009         	goto	l4556
  2259   001228                     l4546:
  2260   001228  50BA               	movf	186,w,c	;volatile
  2261   00122A  0BF0               	andlw	-16
  2262   00122C  0905               	iorlw	5
  2263   00122E  6EBA               	movwf	186,c	;volatile
  2264   001230  EF48  F009         	goto	l4556
  2265   001234                     l4548:
  2266   001234  50BA               	movf	186,w,c	;volatile
  2267   001236  0BF0               	andlw	-16
  2268   001238  0906               	iorlw	6
  2269   00123A  6EBA               	movwf	186,c	;volatile
  2270   00123C  EF48  F009         	goto	l4556
  2271   001240                     l4550:
  2272   001240  50BA               	movf	186,w,c	;volatile
  2273   001242  0BF0               	andlw	-16
  2274   001244  0907               	iorlw	7
  2275   001246  6EBA               	movwf	186,c	;volatile
  2276   001248  EF48  F009         	goto	l4556
  2277   00124C                     l4554:
  2278   00124C  5055               	movf	CCP_Capture_Mode_Config@_ccp_obj^0,w,c
  2279   00124E  6ED9               	movwf	fsr2l,c
  2280   001250  6ADA               	clrf	fsr2h,c
  2281   001252  0E02               	movlw	2
  2282   001254  26D9               	addwf	fsr2l,f,c
  2283   001256  50DF               	movf	indf2,w,c
  2284   001258  6E56               	movwf	??_CCP_Capture_Mode_Config^0,c
  2285   00125A  6A57               	clrf	(??_CCP_Capture_Mode_Config+1)^0,c
  2286                           
  2287                           ; Switch on 2 bytes has been partitioned into a top level switch of size 1, and 1 sub-sw
      +                          itches
  2288                           ; Switch size 1, requested type "simple"
  2289                           ; Number of cases is 1, Range of values is 0 to 0
  2290                           ; switch strategies available:
  2291                           ; Name         Instructions Cycles
  2292                           ; simple_byte            4     3 (average)
  2293                           ;	Chosen strategy is simple_byte
  2294   00125C  5057               	movf	(??_CCP_Capture_Mode_Config+1)^0,w,c
  2295   00125E  0A00               	xorlw	0	; case 0
  2296   001260  B4D8               	btfsc	status,2,c
  2297   001262  EF35  F009         	goto	l5610
  2298   001266  EFDB  F008         	goto	l4536
  2299   00126A                     l5610:
  2300                           
  2301                           ; Switch size 1, requested type "simple"
  2302                           ; Number of cases is 4, Range of values is 4 to 7
  2303                           ; switch strategies available:
  2304                           ; Name         Instructions Cycles
  2305                           ; simple_byte           13     7 (average)
  2306                           ;	Chosen strategy is simple_byte
  2307   00126A  5056               	movf	??_CCP_Capture_Mode_Config^0,w,c
  2308   00126C  0A04               	xorlw	4	; case 4
  2309   00126E  B4D8               	btfsc	status,2,c
  2310   001270  EF0E  F009         	goto	l4544
  2311   001274  0A01               	xorlw	1	; case 5
  2312   001276  B4D8               	btfsc	status,2,c
  2313   001278  EF14  F009         	goto	l4546
  2314   00127C  0A03               	xorlw	3	; case 6
  2315   00127E  B4D8               	btfsc	status,2,c
  2316   001280  EF1A  F009         	goto	l4548
  2317   001284  0A01               	xorlw	1	; case 7
  2318   001286  B4D8               	btfsc	status,2,c
  2319   001288  EF20  F009         	goto	l4550
  2320   00128C  EFDB  F008         	goto	l4536
  2321   001290                     l4556:
  2322                           
  2323                           ;CCP.c: 269:     CCP_Mode_Timer_Select(_ccp_obj);
  2324   001290  C055  F053         	movff	CCP_Capture_Mode_Config@_ccp_obj,CCP_Mode_Timer_Select@_ccp_obj
  2325   001294  ECFD  F00A         	call	_CCP_Mode_Timer_Select	;wreg free
  2326   001298                     
  2327                           ;CCP.c: 270:     return ret;
  2328   001298  5058               	movf	CCP_Capture_Mode_Config@ret^0,w,c
  2329   00129A  0012               	return		;funcret
  2330   00129C                     __end_of_CCP_Capture_Mode_Config:
  2331                           	callstack 0
  2332                           
  2333 ;; *************** function _CCP_Mode_Timer_Select *****************
  2334 ;; Defined at:
  2335 ;;		line 384 in file "CCP.c"
  2336 ;; Parameters:    Size  Location     Type
  2337 ;;  _ccp_obj        1    3[COMRAM] PTR const struct .
  2338 ;;		 -> ccp2(9), 
  2339 ;; Auto vars:     Size  Location     Type
  2340 ;;		None
  2341 ;; Return value:  Size  Location     Type
  2342 ;;                  1    wreg      void 
  2343 ;; Registers used:
  2344 ;;		wreg, fsr2l, fsr2h, status,2, status,0
  2345 ;; Tracked objects:
  2346 ;;		On entry : 0/0
  2347 ;;		On exit  : 0/0
  2348 ;;		Unchanged: 0/0
  2349 ;; Data sizes:     COMRAM   BANK0   BANK1   BANK2   BANK3   BANK4   BANK5   BANK6   BANK7   BANK8   BANK9  BANK10  BANK1
      +1  BANK12  BANK13  BANK14  BANK15
  2350 ;;      Params:         1       0       0       0       0       0       0       0       0       0       0       0       
      +0       0       0       0       0
  2351 ;;      Locals:         0       0       0       0       0       0       0       0       0       0       0       0       
      +0       0       0       0       0
  2352 ;;      Temps:          1       0       0       0       0       0       0       0       0       0       0       0       
      +0       0       0       0       0
  2353 ;;      Totals:         2       0       0       0       0       0       0       0       0       0       0       0       
      +0       0       0       0       0
  2354 ;;Total ram usage:        2 bytes
  2355 ;; Hardware stack levels used: 1
  2356 ;; Hardware stack levels required when called: 3
  2357 ;; This function calls:
  2358 ;;		Nothing
  2359 ;; This function is called by:
  2360 ;;		_CCP_Capture_Mode_Config
  2361 ;;		_CCP_Compare_Mode_Config
  2362 ;; This function uses a non-reentrant model
  2363 ;;
  2364                           
  2365                           	psect	text14
  2366   0015FA                     __ptext14:
  2367                           	callstack 0
  2368   0015FA                     _CCP_Mode_Timer_Select:
  2369                           	callstack 25
  2370   0015FA                     
  2371                           ;CCP.c: 384: static void CCP_Mode_Timer_Select(const CCP *_ccp_obj);CCP.c: 385: {;CCP.c:
      +                           386:     if(CCP1_CCP2_TIMER3 == _ccp_obj->ccp_capture_timer){
  2372   0015FA  5053               	movf	CCP_Mode_Timer_Select@_ccp_obj^0,w,c
  2373   0015FC  6ED9               	movwf	fsr2l,c
  2374   0015FE  6ADA               	clrf	fsr2h,c
  2375   001600  0E04               	movlw	4
  2376   001602  26D9               	addwf	fsr2l,f,c
  2377   001604  50DF               	movf	indf2,w,c
  2378   001606  A4D8               	btfss	status,2,c
  2379   001608  EF08  F00B         	goto	u2951
  2380   00160C  EF0A  F00B         	goto	u2950
  2381   001610                     u2951:
  2382   001610  EF0E  F00B         	goto	l4422
  2383   001614                     u2950:
  2384   001614                     
  2385                           ;CCP.c: 388:         T3CONbits.T3CCP1 = 0;
  2386   001614  96B1               	bcf	177,3,c	;volatile
  2387                           
  2388                           ;CCP.c: 389:         T3CONbits.T3CCP2 = 1;
  2389   001616  8CB1               	bsf	177,6,c	;volatile
  2390                           
  2391                           ;CCP.c: 390:     }
  2392   001618  EF31  F00B         	goto	l617
  2393   00161C                     l4422:
  2394   00161C  5053               	movf	CCP_Mode_Timer_Select@_ccp_obj^0,w,c
  2395   00161E  6ED9               	movwf	fsr2l,c
  2396   001620  6ADA               	clrf	fsr2h,c
  2397   001622  0E04               	movlw	4
  2398   001624  26D9               	addwf	fsr2l,f,c
  2399   001626  04DE               	decf	postinc2,w,c
  2400   001628  A4D8               	btfss	status,2,c
  2401   00162A  EF19  F00B         	goto	u2961
  2402   00162E  EF1B  F00B         	goto	u2960
  2403   001632                     u2961:
  2404   001632  EF1F  F00B         	goto	l4426
  2405   001636                     u2960:
  2406   001636                     
  2407                           ;CCP.c: 394:         T3CONbits.T3CCP1 = 1;
  2408   001636  86B1               	bsf	177,3,c	;volatile
  2409                           
  2410                           ;CCP.c: 395:         T3CONbits.T3CCP2 = 0;
  2411   001638  9CB1               	bcf	177,6,c	;volatile
  2412                           
  2413                           ;CCP.c: 396:     }
  2414   00163A  EF31  F00B         	goto	l617
  2415   00163E                     l4426:
  2416   00163E  5053               	movf	CCP_Mode_Timer_Select@_ccp_obj^0,w,c
  2417   001640  6ED9               	movwf	fsr2l,c
  2418   001642  6ADA               	clrf	fsr2h,c
  2419   001644  0E04               	movlw	4
  2420   001646  26D9               	addwf	fsr2l,f,c
  2421   001648  0E02               	movlw	2
  2422   00164A  18DE               	xorwf	postinc2,w,c
  2423   00164C  A4D8               	btfss	status,2,c
  2424   00164E  EF2B  F00B         	goto	u2971
  2425   001652  EF2D  F00B         	goto	u2970
  2426   001656                     u2971:
  2427   001656  EF31  F00B         	goto	l614
  2428   00165A                     u2970:
  2429   00165A                     
  2430                           ;CCP.c: 399:         T3CONbits.T3CCP1 = 0;
  2431   00165A  96B1               	bcf	177,3,c	;volatile
  2432                           
  2433                           ;CCP.c: 400:         T3CONbits.T3CCP2 = 0;
  2434   00165C  9CB1               	bcf	177,6,c	;volatile
  2435                           
  2436                           ;CCP.c: 401:     }
  2437   00165E  EF31  F00B         	goto	l617
  2438   001662                     l614:
  2439   001662                     l617:
  2440   001662  0012               	return		;funcret
  2441   001664                     __end_of_CCP_Mode_Timer_Select:
  2442                           	callstack 0
  2443                           
  2444 ;; *************** function __ISR *****************
  2445 ;; Defined at:
  2446 ;;		line 46 in file "MCAL_layer/interrupt/mcal_interrupt_manager.c"
  2447 ;; Parameters:    Size  Location     Type
  2448 ;;		None
  2449 ;; Auto vars:     Size  Location     Type
  2450 ;;		None
  2451 ;; Return value:  Size  Location     Type
  2452 ;;                  1    wreg      void 
  2453 ;; Registers used:
  2454 ;;		wreg, status,2, status,0, pcl, pclath, pclatu, tosl, cstack
  2455 ;; Tracked objects:
  2456 ;;		On entry : 0/0
  2457 ;;		On exit  : 0/0
  2458 ;;		Unchanged: 0/0
  2459 ;; Data sizes:     COMRAM   BANK0   BANK1   BANK2   BANK3   BANK4   BANK5   BANK6   BANK7   BANK8   BANK9  BANK10  BANK1
      +1  BANK12  BANK13  BANK14  BANK15
  2460 ;;      Params:         0       0       0       0       0       0       0       0       0       0       0       0       
      +0       0       0       0       0
  2461 ;;      Locals:         0       0       0       0       0       0       0       0       0       0       0       0       
      +0       0       0       0       0
  2462 ;;      Temps:          2       0       0       0       0       0       0       0       0       0       0       0       
      +0       0       0       0       0
  2463 ;;      Totals:         2       0       0       0       0       0       0       0       0       0       0       0       
      +0       0       0       0       0
  2464 ;;Total ram usage:        2 bytes
  2465 ;; Hardware stack levels used: 1
  2466 ;; Hardware stack levels required when called: 2
  2467 ;; This function calls:
  2468 ;;		_ADC_ISR
  2469 ;;		_CCP1_ISR
  2470 ;;		_CCP2_ISR
  2471 ;;		_INT0_ISR
  2472 ;;		_INT1_ISR
  2473 ;;		_INT2_ISR
  2474 ;;		_RB4_ISR_high
  2475 ;;		_RB4_ISR_low
  2476 ;;		_RB5_ISR_high
  2477 ;;		_RB5_ISR_low
  2478 ;;		_RB6_ISR_high
  2479 ;;		_RB6_ISR_low
  2480 ;;		_RB7_ISR_high
  2481 ;;		_RB7_ISR_low
  2482 ;;		_TIMER0_ISR
  2483 ;;		_TIMER1_ISR
  2484 ;;		_TIMER2_ISR
  2485 ;;		_TIMER3_ISR
  2486 ;; This function is called by:
  2487 ;;		Interrupt level 2
  2488 ;; This function uses a non-reentrant model
  2489 ;;
  2490                           
  2491                           	psect	intcode
  2492   000008                     __pintcode:
  2493                           	callstack 0
  2494   000008                     __ISR:
  2495                           	callstack 25
  2496                           
  2497                           ;incstack = 0
  2498   000008  825C               	bsf	int$flags,1,c	;set compiler interrupt flag (level 2)
  2499   00000A  CFFA F051          	movff	pclath,??__ISR
  2500   00000E  CFFB F052          	movff	pclatu,??__ISR+1
  2501   000012                     
  2502                           ;MCAL_layer/interrupt/mcal_interrupt_manager.c: 49:     if((1==INTCONbits.INT0IE) && (1=
      +                          =INTCONbits.INT0IF))
  2503   000012  A8F2               	btfss	242,4,c	;volatile
  2504   000014  EF0E  F000         	goto	i2u188_41
  2505   000018  EF10  F000         	goto	i2u188_40
  2506   00001C                     i2u188_41:
  2507   00001C  EF19  F000         	goto	i2l1135
  2508   000020                     i2u188_40:
  2509   000020  A2F2               	btfss	242,1,c	;volatile
  2510   000022  EF15  F000         	goto	i2u189_41
  2511   000026  EF17  F000         	goto	i2u189_40
  2512   00002A                     i2u189_41:
  2513   00002A  EF19  F000         	goto	i2l1135
  2514   00002E                     i2u189_40:
  2515   00002E                     
  2516                           ;MCAL_layer/interrupt/mcal_interrupt_manager.c: 50:     {;MCAL_layer/interrupt/mcal_inte
      +                          rrupt_manager.c: 51:         INT0_ISR();
  2517   00002E  ECA7  F00C         	call	_INT0_ISR	;wreg free
  2518   000032                     i2l1135:
  2519                           
  2520                           ;MCAL_layer/interrupt/mcal_interrupt_manager.c: 54:     if((1==INTCON3bits.INT1IE) && (1
      +                          ==INTCON3bits.INT1IF) )
  2521   000032  A6F0               	btfss	240,3,c	;volatile
  2522   000034  EF1E  F000         	goto	i2u190_41
  2523   000038  EF20  F000         	goto	i2u190_40
  2524   00003C                     i2u190_41:
  2525   00003C  EF29  F000         	goto	i2l1137
  2526   000040                     i2u190_40:
  2527   000040  A0F0               	btfss	240,0,c	;volatile
  2528   000042  EF25  F000         	goto	i2u191_41
  2529   000046  EF27  F000         	goto	i2u191_40
  2530   00004A                     i2u191_41:
  2531   00004A  EF29  F000         	goto	i2l1137
  2532   00004E                     i2u191_40:
  2533   00004E                     
  2534                           ;MCAL_layer/interrupt/mcal_interrupt_manager.c: 55:     {;MCAL_layer/interrupt/mcal_inte
      +                          rrupt_manager.c: 56:        INT1_ISR();
  2535   00004E  ECA5  F00C         	call	_INT1_ISR	;wreg free
  2536   000052                     i2l1137:
  2537                           
  2538                           ;MCAL_layer/interrupt/mcal_interrupt_manager.c: 59:     if((1==INTCON3bits.INT2IE) && (1
      +                          ==INTCON3bits.INT2IF) )
  2539   000052  A8F0               	btfss	240,4,c	;volatile
  2540   000054  EF2E  F000         	goto	i2u192_41
  2541   000058  EF30  F000         	goto	i2u192_40
  2542   00005C                     i2u192_41:
  2543   00005C  EF39  F000         	goto	i2l1139
  2544   000060                     i2u192_40:
  2545   000060  A2F0               	btfss	240,1,c	;volatile
  2546   000062  EF35  F000         	goto	i2u193_41
  2547   000066  EF37  F000         	goto	i2u193_40
  2548   00006A                     i2u193_41:
  2549   00006A  EF39  F000         	goto	i2l1139
  2550   00006E                     i2u193_40:
  2551   00006E                     
  2552                           ;MCAL_layer/interrupt/mcal_interrupt_manager.c: 60:     {;MCAL_layer/interrupt/mcal_inte
      +                          rrupt_manager.c: 61:        INT2_ISR();
  2553   00006E  ECA3  F00C         	call	_INT2_ISR	;wreg free
  2554   000072                     i2l1139:
  2555                           
  2556                           ;MCAL_layer/interrupt/mcal_interrupt_manager.c: 68:     if((1==INTCONbits.RBIE) && (1==I
      +                          NTCONbits.RBIF)
  2557   000072  A6F2               	btfss	242,3,c	;volatile
  2558   000074  EF3E  F000         	goto	i2u194_41
  2559   000078  EF40  F000         	goto	i2u194_40
  2560   00007C                     i2u194_41:
  2561   00007C  EF61  F000         	goto	i2l1141
  2562   000080                     i2u194_40:
  2563   000080  A0F2               	btfss	242,0,c	;volatile
  2564   000082  EF45  F000         	goto	i2u195_41
  2565   000086  EF47  F000         	goto	i2u195_40
  2566   00008A                     i2u195_41:
  2567   00008A  EF61  F000         	goto	i2l1141
  2568   00008E                     i2u195_40:
  2569   00008E  A87D               	btfss	125,4,c	;volatile
  2570   000090  EF4C  F000         	goto	i2u196_41
  2571   000094  EF4E  F000         	goto	i2u196_40
  2572   000098                     i2u196_41:
  2573   000098  EF61  F000         	goto	i2l1141
  2574   00009C                     i2u196_40:
  2575   00009C  044B               	decf	_RB4_FLAG^0,w,c	;volatile
  2576   00009E  A4D8               	btfss	status,2,c
  2577   0000A0  EF54  F000         	goto	i2u197_41
  2578   0000A4  EF56  F000         	goto	i2u197_40
  2579   0000A8                     i2u197_41:
  2580   0000A8  EF61  F000         	goto	i2l1141
  2581   0000AC                     i2u197_40:
  2582   0000AC  A881               	btfss	129,4,c	;volatile
  2583   0000AE  EF5B  F000         	goto	i2u198_41
  2584   0000B2  EF5D  F000         	goto	i2u198_40
  2585   0000B6                     i2u198_41:
  2586   0000B6  EF61  F000         	goto	i2l1141
  2587   0000BA                     i2u198_40:
  2588   0000BA                     
  2589                           ;MCAL_layer/interrupt/mcal_interrupt_manager.c: 71:     {;MCAL_layer/interrupt/mcal_inte
      +                          rrupt_manager.c: 72:        RB4_FLAG=0;
  2590   0000BA  0E00               	movlw	0
  2591   0000BC  6E4B               	movwf	_RB4_FLAG^0,c	;volatile
  2592   0000BE                     
  2593                           ;MCAL_layer/interrupt/mcal_interrupt_manager.c: 73:        RB4_ISR_high();
  2594   0000BE  EC9C  F00C         	call	_RB4_ISR_high	;wreg free
  2595   0000C2                     i2l1141:
  2596                           
  2597                           ;MCAL_layer/interrupt/mcal_interrupt_manager.c: 76:     if((1==INTCONbits.RBIE) && (1==I
      +                          NTCONbits.RBIF)
  2598   0000C2  A6F2               	btfss	242,3,c	;volatile
  2599   0000C4  EF66  F000         	goto	i2u199_41
  2600   0000C8  EF68  F000         	goto	i2u199_40
  2601   0000CC                     i2u199_41:
  2602   0000CC  EF89  F000         	goto	i2l1143
  2603   0000D0                     i2u199_40:
  2604   0000D0  A0F2               	btfss	242,0,c	;volatile
  2605   0000D2  EF6D  F000         	goto	i2u200_41
  2606   0000D6  EF6F  F000         	goto	i2u200_40
  2607   0000DA                     i2u200_41:
  2608   0000DA  EF89  F000         	goto	i2l1143
  2609   0000DE                     i2u200_40:
  2610   0000DE  A87D               	btfss	125,4,c	;volatile
  2611   0000E0  EF74  F000         	goto	i2u201_41
  2612   0000E4  EF76  F000         	goto	i2u201_40
  2613   0000E8                     i2u201_41:
  2614   0000E8  EF89  F000         	goto	i2l1143
  2615   0000EC                     i2u201_40:
  2616   0000EC  504B               	movf	_RB4_FLAG^0,w,c	;volatile
  2617   0000EE  A4D8               	btfss	status,2,c
  2618   0000F0  EF7C  F000         	goto	i2u202_41
  2619   0000F4  EF7E  F000         	goto	i2u202_40
  2620   0000F8                     i2u202_41:
  2621   0000F8  EF89  F000         	goto	i2l1143
  2622   0000FC                     i2u202_40:
  2623   0000FC  B881               	btfsc	129,4,c	;volatile
  2624   0000FE  EF83  F000         	goto	i2u203_41
  2625   000102  EF85  F000         	goto	i2u203_40
  2626   000106                     i2u203_41:
  2627   000106  EF89  F000         	goto	i2l1143
  2628   00010A                     i2u203_40:
  2629   00010A                     
  2630                           ;MCAL_layer/interrupt/mcal_interrupt_manager.c: 79:     {;MCAL_layer/interrupt/mcal_inte
      +                          rrupt_manager.c: 80:        RB4_FLAG=1;
  2631   00010A  0E01               	movlw	1
  2632   00010C  6E4B               	movwf	_RB4_FLAG^0,c	;volatile
  2633   00010E                     
  2634                           ;MCAL_layer/interrupt/mcal_interrupt_manager.c: 81:        RB4_ISR_low();
  2635   00010E  EC98  F00C         	call	_RB4_ISR_low	;wreg free
  2636   000112                     i2l1143:
  2637                           
  2638                           ;MCAL_layer/interrupt/mcal_interrupt_manager.c: 84:     if((1==INTCONbits.RBIE) && (1==I
      +                          NTCONbits.RBIF)
  2639   000112  A6F2               	btfss	242,3,c	;volatile
  2640   000114  EF8E  F000         	goto	i2u204_41
  2641   000118  EF90  F000         	goto	i2u204_40
  2642   00011C                     i2u204_41:
  2643   00011C  EFB1  F000         	goto	i2l1145
  2644   000120                     i2u204_40:
  2645   000120  A0F2               	btfss	242,0,c	;volatile
  2646   000122  EF95  F000         	goto	i2u205_41
  2647   000126  EF97  F000         	goto	i2u205_40
  2648   00012A                     i2u205_41:
  2649   00012A  EFB1  F000         	goto	i2l1145
  2650   00012E                     i2u205_40:
  2651   00012E  AA7D               	btfss	125,5,c	;volatile
  2652   000130  EF9C  F000         	goto	i2u206_41
  2653   000134  EF9E  F000         	goto	i2u206_40
  2654   000138                     i2u206_41:
  2655   000138  EFB1  F000         	goto	i2l1145
  2656   00013C                     i2u206_40:
  2657   00013C  044A               	decf	_RB5_FLAG^0,w,c	;volatile
  2658   00013E  A4D8               	btfss	status,2,c
  2659   000140  EFA4  F000         	goto	i2u207_41
  2660   000144  EFA6  F000         	goto	i2u207_40
  2661   000148                     i2u207_41:
  2662   000148  EFB1  F000         	goto	i2l1145
  2663   00014C                     i2u207_40:
  2664   00014C  AA81               	btfss	129,5,c	;volatile
  2665   00014E  EFAB  F000         	goto	i2u208_41
  2666   000152  EFAD  F000         	goto	i2u208_40
  2667   000156                     i2u208_41:
  2668   000156  EFB1  F000         	goto	i2l1145
  2669   00015A                     i2u208_40:
  2670   00015A                     
  2671                           ;MCAL_layer/interrupt/mcal_interrupt_manager.c: 87:     {;MCAL_layer/interrupt/mcal_inte
      +                          rrupt_manager.c: 88:        RB5_FLAG=0;
  2672   00015A  0E00               	movlw	0
  2673   00015C  6E4A               	movwf	_RB5_FLAG^0,c	;volatile
  2674   00015E                     
  2675                           ;MCAL_layer/interrupt/mcal_interrupt_manager.c: 89:        RB5_ISR_high();
  2676   00015E  EC94  F00C         	call	_RB5_ISR_high	;wreg free
  2677   000162                     i2l1145:
  2678                           
  2679                           ;MCAL_layer/interrupt/mcal_interrupt_manager.c: 92:     if((1==INTCONbits.RBIE) && (1==I
      +                          NTCONbits.RBIF)
  2680   000162  A6F2               	btfss	242,3,c	;volatile
  2681   000164  EFB6  F000         	goto	i2u209_41
  2682   000168  EFB8  F000         	goto	i2u209_40
  2683   00016C                     i2u209_41:
  2684   00016C  EFD9  F000         	goto	i2l1147
  2685   000170                     i2u209_40:
  2686   000170  A0F2               	btfss	242,0,c	;volatile
  2687   000172  EFBD  F000         	goto	i2u210_41
  2688   000176  EFBF  F000         	goto	i2u210_40
  2689   00017A                     i2u210_41:
  2690   00017A  EFD9  F000         	goto	i2l1147
  2691   00017E                     i2u210_40:
  2692   00017E  AA7D               	btfss	125,5,c	;volatile
  2693   000180  EFC4  F000         	goto	i2u211_41
  2694   000184  EFC6  F000         	goto	i2u211_40
  2695   000188                     i2u211_41:
  2696   000188  EFD9  F000         	goto	i2l1147
  2697   00018C                     i2u211_40:
  2698   00018C  504A               	movf	_RB5_FLAG^0,w,c	;volatile
  2699   00018E  A4D8               	btfss	status,2,c
  2700   000190  EFCC  F000         	goto	i2u212_41
  2701   000194  EFCE  F000         	goto	i2u212_40
  2702   000198                     i2u212_41:
  2703   000198  EFD9  F000         	goto	i2l1147
  2704   00019C                     i2u212_40:
  2705   00019C  BA81               	btfsc	129,5,c	;volatile
  2706   00019E  EFD3  F000         	goto	i2u213_41
  2707   0001A2  EFD5  F000         	goto	i2u213_40
  2708   0001A6                     i2u213_41:
  2709   0001A6  EFD9  F000         	goto	i2l1147
  2710   0001AA                     i2u213_40:
  2711   0001AA                     
  2712                           ;MCAL_layer/interrupt/mcal_interrupt_manager.c: 95:     {;MCAL_layer/interrupt/mcal_inte
      +                          rrupt_manager.c: 96:        RB5_FLAG=1;
  2713   0001AA  0E01               	movlw	1
  2714   0001AC  6E4A               	movwf	_RB5_FLAG^0,c	;volatile
  2715   0001AE                     
  2716                           ;MCAL_layer/interrupt/mcal_interrupt_manager.c: 97:        RB5_ISR_low();
  2717   0001AE  EC90  F00C         	call	_RB5_ISR_low	;wreg free
  2718   0001B2                     i2l1147:
  2719                           
  2720                           ;MCAL_layer/interrupt/mcal_interrupt_manager.c: 100:     if((1==INTCONbits.RBIE) && (1==
      +                          INTCONbits.RBIF)
  2721   0001B2  A6F2               	btfss	242,3,c	;volatile
  2722   0001B4  EFDE  F000         	goto	i2u214_41
  2723   0001B8  EFE0  F000         	goto	i2u214_40
  2724   0001BC                     i2u214_41:
  2725   0001BC  EF01  F001         	goto	i2l1149
  2726   0001C0                     i2u214_40:
  2727   0001C0  A0F2               	btfss	242,0,c	;volatile
  2728   0001C2  EFE5  F000         	goto	i2u215_41
  2729   0001C6  EFE7  F000         	goto	i2u215_40
  2730   0001CA                     i2u215_41:
  2731   0001CA  EF01  F001         	goto	i2l1149
  2732   0001CE                     i2u215_40:
  2733   0001CE  AC7D               	btfss	125,6,c	;volatile
  2734   0001D0  EFEC  F000         	goto	i2u216_41
  2735   0001D4  EFEE  F000         	goto	i2u216_40
  2736   0001D8                     i2u216_41:
  2737   0001D8  EF01  F001         	goto	i2l1149
  2738   0001DC                     i2u216_40:
  2739   0001DC  0449               	decf	_RB6_FLAG^0,w,c	;volatile
  2740   0001DE  A4D8               	btfss	status,2,c
  2741   0001E0  EFF4  F000         	goto	i2u217_41
  2742   0001E4  EFF6  F000         	goto	i2u217_40
  2743   0001E8                     i2u217_41:
  2744   0001E8  EF01  F001         	goto	i2l1149
  2745   0001EC                     i2u217_40:
  2746   0001EC  AC81               	btfss	129,6,c	;volatile
  2747   0001EE  EFFB  F000         	goto	i2u218_41
  2748   0001F2  EFFD  F000         	goto	i2u218_40
  2749   0001F6                     i2u218_41:
  2750   0001F6  EF01  F001         	goto	i2l1149
  2751   0001FA                     i2u218_40:
  2752   0001FA                     
  2753                           ;MCAL_layer/interrupt/mcal_interrupt_manager.c: 103:     {;MCAL_layer/interrupt/mcal_int
      +                          errupt_manager.c: 104:        RB6_FLAG=0;
  2754   0001FA  0E00               	movlw	0
  2755   0001FC  6E49               	movwf	_RB6_FLAG^0,c	;volatile
  2756   0001FE                     
  2757                           ;MCAL_layer/interrupt/mcal_interrupt_manager.c: 105:        RB6_ISR_high();
  2758   0001FE  EC8C  F00C         	call	_RB6_ISR_high	;wreg free
  2759   000202                     i2l1149:
  2760                           
  2761                           ;MCAL_layer/interrupt/mcal_interrupt_manager.c: 108:     if((1==INTCONbits.RBIE) && (1==
      +                          INTCONbits.RBIF)
  2762   000202  A6F2               	btfss	242,3,c	;volatile
  2763   000204  EF06  F001         	goto	i2u219_41
  2764   000208  EF08  F001         	goto	i2u219_40
  2765   00020C                     i2u219_41:
  2766   00020C  EF29  F001         	goto	i2l1151
  2767   000210                     i2u219_40:
  2768   000210  A0F2               	btfss	242,0,c	;volatile
  2769   000212  EF0D  F001         	goto	i2u220_41
  2770   000216  EF0F  F001         	goto	i2u220_40
  2771   00021A                     i2u220_41:
  2772   00021A  EF29  F001         	goto	i2l1151
  2773   00021E                     i2u220_40:
  2774   00021E  AC7D               	btfss	125,6,c	;volatile
  2775   000220  EF14  F001         	goto	i2u221_41
  2776   000224  EF16  F001         	goto	i2u221_40
  2777   000228                     i2u221_41:
  2778   000228  EF29  F001         	goto	i2l1151
  2779   00022C                     i2u221_40:
  2780   00022C  5049               	movf	_RB6_FLAG^0,w,c	;volatile
  2781   00022E  A4D8               	btfss	status,2,c
  2782   000230  EF1C  F001         	goto	i2u222_41
  2783   000234  EF1E  F001         	goto	i2u222_40
  2784   000238                     i2u222_41:
  2785   000238  EF29  F001         	goto	i2l1151
  2786   00023C                     i2u222_40:
  2787   00023C  BC81               	btfsc	129,6,c	;volatile
  2788   00023E  EF23  F001         	goto	i2u223_41
  2789   000242  EF25  F001         	goto	i2u223_40
  2790   000246                     i2u223_41:
  2791   000246  EF29  F001         	goto	i2l1151
  2792   00024A                     i2u223_40:
  2793   00024A                     
  2794                           ;MCAL_layer/interrupt/mcal_interrupt_manager.c: 111:     {;MCAL_layer/interrupt/mcal_int
      +                          errupt_manager.c: 112:        RB6_FLAG=1;
  2795   00024A  0E01               	movlw	1
  2796   00024C  6E49               	movwf	_RB6_FLAG^0,c	;volatile
  2797   00024E                     
  2798                           ;MCAL_layer/interrupt/mcal_interrupt_manager.c: 113:        RB6_ISR_low();
  2799   00024E  EC88  F00C         	call	_RB6_ISR_low	;wreg free
  2800   000252                     i2l1151:
  2801                           
  2802                           ;MCAL_layer/interrupt/mcal_interrupt_manager.c: 116:     if((1==INTCONbits.RBIE) && (1==
      +                          INTCONbits.RBIF)
  2803   000252  A6F2               	btfss	242,3,c	;volatile
  2804   000254  EF2E  F001         	goto	i2u224_41
  2805   000258  EF30  F001         	goto	i2u224_40
  2806   00025C                     i2u224_41:
  2807   00025C  EF51  F001         	goto	i2l1153
  2808   000260                     i2u224_40:
  2809   000260  A0F2               	btfss	242,0,c	;volatile
  2810   000262  EF35  F001         	goto	i2u225_41
  2811   000266  EF37  F001         	goto	i2u225_40
  2812   00026A                     i2u225_41:
  2813   00026A  EF51  F001         	goto	i2l1153
  2814   00026E                     i2u225_40:
  2815   00026E  AE7D               	btfss	125,7,c	;volatile
  2816   000270  EF3C  F001         	goto	i2u226_41
  2817   000274  EF3E  F001         	goto	i2u226_40
  2818   000278                     i2u226_41:
  2819   000278  EF51  F001         	goto	i2l1153
  2820   00027C                     i2u226_40:
  2821   00027C  0448               	decf	_RB7_FLAG^0,w,c	;volatile
  2822   00027E  A4D8               	btfss	status,2,c
  2823   000280  EF44  F001         	goto	i2u227_41
  2824   000284  EF46  F001         	goto	i2u227_40
  2825   000288                     i2u227_41:
  2826   000288  EF51  F001         	goto	i2l1153
  2827   00028C                     i2u227_40:
  2828   00028C  AE81               	btfss	129,7,c	;volatile
  2829   00028E  EF4B  F001         	goto	i2u228_41
  2830   000292  EF4D  F001         	goto	i2u228_40
  2831   000296                     i2u228_41:
  2832   000296  EF51  F001         	goto	i2l1153
  2833   00029A                     i2u228_40:
  2834   00029A                     
  2835                           ;MCAL_layer/interrupt/mcal_interrupt_manager.c: 119:     {;MCAL_layer/interrupt/mcal_int
      +                          errupt_manager.c: 120:        RB7_FLAG=0;
  2836   00029A  0E00               	movlw	0
  2837   00029C  6E48               	movwf	_RB7_FLAG^0,c	;volatile
  2838   00029E                     
  2839                           ;MCAL_layer/interrupt/mcal_interrupt_manager.c: 121:        RB7_ISR_high();
  2840   00029E  EC84  F00C         	call	_RB7_ISR_high	;wreg free
  2841   0002A2                     i2l1153:
  2842                           
  2843                           ;MCAL_layer/interrupt/mcal_interrupt_manager.c: 124:     if((1==INTCONbits.RBIE) && (1==
      +                          INTCONbits.RBIF)
  2844   0002A2  A6F2               	btfss	242,3,c	;volatile
  2845   0002A4  EF56  F001         	goto	i2u229_41
  2846   0002A8  EF58  F001         	goto	i2u229_40
  2847   0002AC                     i2u229_41:
  2848   0002AC  EF79  F001         	goto	i2l1155
  2849   0002B0                     i2u229_40:
  2850   0002B0  A0F2               	btfss	242,0,c	;volatile
  2851   0002B2  EF5D  F001         	goto	i2u230_41
  2852   0002B6  EF5F  F001         	goto	i2u230_40
  2853   0002BA                     i2u230_41:
  2854   0002BA  EF79  F001         	goto	i2l1155
  2855   0002BE                     i2u230_40:
  2856   0002BE  AE7D               	btfss	125,7,c	;volatile
  2857   0002C0  EF64  F001         	goto	i2u231_41
  2858   0002C4  EF66  F001         	goto	i2u231_40
  2859   0002C8                     i2u231_41:
  2860   0002C8  EF79  F001         	goto	i2l1155
  2861   0002CC                     i2u231_40:
  2862   0002CC  5048               	movf	_RB7_FLAG^0,w,c	;volatile
  2863   0002CE  A4D8               	btfss	status,2,c
  2864   0002D0  EF6C  F001         	goto	i2u232_41
  2865   0002D4  EF6E  F001         	goto	i2u232_40
  2866   0002D8                     i2u232_41:
  2867   0002D8  EF79  F001         	goto	i2l1155
  2868   0002DC                     i2u232_40:
  2869   0002DC  BE81               	btfsc	129,7,c	;volatile
  2870   0002DE  EF73  F001         	goto	i2u233_41
  2871   0002E2  EF75  F001         	goto	i2u233_40
  2872   0002E6                     i2u233_41:
  2873   0002E6  EF79  F001         	goto	i2l1155
  2874   0002EA                     i2u233_40:
  2875   0002EA                     
  2876                           ;MCAL_layer/interrupt/mcal_interrupt_manager.c: 127:     {;MCAL_layer/interrupt/mcal_int
      +                          errupt_manager.c: 128:        RB7_FLAG=1;
  2877   0002EA  0E01               	movlw	1
  2878   0002EC  6E48               	movwf	_RB7_FLAG^0,c	;volatile
  2879   0002EE                     
  2880                           ;MCAL_layer/interrupt/mcal_interrupt_manager.c: 129:        RB7_ISR_low();
  2881   0002EE  EC80  F00C         	call	_RB7_ISR_low	;wreg free
  2882   0002F2                     i2l1155:
  2883                           
  2884                           ;MCAL_layer/interrupt/mcal_interrupt_manager.c: 135:     if((1==PIE1bits.ADIE) && (1==PI
      +                          R1bits.ADIF))
  2885   0002F2  AC9D               	btfss	157,6,c	;volatile
  2886   0002F4  EF7E  F001         	goto	i2u234_41
  2887   0002F8  EF80  F001         	goto	i2u234_40
  2888   0002FC                     i2u234_41:
  2889   0002FC  EF89  F001         	goto	i2l1157
  2890   000300                     i2u234_40:
  2891   000300  AC9E               	btfss	158,6,c	;volatile
  2892   000302  EF85  F001         	goto	i2u235_41
  2893   000306  EF87  F001         	goto	i2u235_40
  2894   00030A                     i2u235_41:
  2895   00030A  EF89  F001         	goto	i2l1157
  2896   00030E                     i2u235_40:
  2897   00030E                     
  2898                           ;MCAL_layer/interrupt/mcal_interrupt_manager.c: 136:     {;MCAL_layer/interrupt/mcal_int
      +                          errupt_manager.c: 137:         ADC_ISR();
  2899   00030E  ECAB  F00C         	call	_ADC_ISR	;wreg free
  2900   000312                     i2l1157:
  2901                           
  2902                           ;MCAL_layer/interrupt/mcal_interrupt_manager.c: 141:     if((1== INTCONbits.TMR0IE) && (
      +                          1==INTCONbits.TMR0IF))
  2903   000312  AAF2               	btfss	242,5,c	;volatile
  2904   000314  EF8E  F001         	goto	i2u236_41
  2905   000318  EF90  F001         	goto	i2u236_40
  2906   00031C                     i2u236_41:
  2907   00031C  EF99  F001         	goto	i2l1159
  2908   000320                     i2u236_40:
  2909   000320  A4F2               	btfss	242,2,c	;volatile
  2910   000322  EF95  F001         	goto	i2u237_41
  2911   000326  EF97  F001         	goto	i2u237_40
  2912   00032A                     i2u237_41:
  2913   00032A  EF99  F001         	goto	i2l1159
  2914   00032E                     i2u237_40:
  2915   00032E                     
  2916                           ;MCAL_layer/interrupt/mcal_interrupt_manager.c: 142:     {;MCAL_layer/interrupt/mcal_int
      +                          errupt_manager.c: 143:         TIMER0_ISR();
  2917   00032E  EC76  F00C         	call	_TIMER0_ISR	;wreg free
  2918   000332                     i2l1159:
  2919                           
  2920                           ;MCAL_layer/interrupt/mcal_interrupt_manager.c: 147:     if((1== PIE1bits.TMR1IE) && (1=
      +                          =PIR1bits.TMR1IF))
  2921   000332  A09D               	btfss	157,0,c	;volatile
  2922   000334  EF9E  F001         	goto	i2u238_41
  2923   000338  EFA0  F001         	goto	i2u238_40
  2924   00033C                     i2u238_41:
  2925   00033C  EFA9  F001         	goto	i2l1161
  2926   000340                     i2u238_40:
  2927   000340  A09E               	btfss	158,0,c	;volatile
  2928   000342  EFA5  F001         	goto	i2u239_41
  2929   000346  EFA7  F001         	goto	i2u239_40
  2930   00034A                     i2u239_41:
  2931   00034A  EFA9  F001         	goto	i2l1161
  2932   00034E                     i2u239_40:
  2933   00034E                     
  2934                           ;MCAL_layer/interrupt/mcal_interrupt_manager.c: 148:     {;MCAL_layer/interrupt/mcal_int
      +                          errupt_manager.c: 149:         TIMER1_ISR();
  2935   00034E  EC70  F00C         	call	_TIMER1_ISR	;wreg free
  2936   000352                     i2l1161:
  2937                           
  2938                           ;MCAL_layer/interrupt/mcal_interrupt_manager.c: 153:     if((1== PIE1bits.TMR2IE) && (1=
      +                          =PIR1bits.TMR2IF))
  2939   000352  A29D               	btfss	157,1,c	;volatile
  2940   000354  EFAE  F001         	goto	i2u240_41
  2941   000358  EFB0  F001         	goto	i2u240_40
  2942   00035C                     i2u240_41:
  2943   00035C  EFB9  F001         	goto	i2l1163
  2944   000360                     i2u240_40:
  2945   000360  A29E               	btfss	158,1,c	;volatile
  2946   000362  EFB5  F001         	goto	i2u241_41
  2947   000366  EFB7  F001         	goto	i2u241_40
  2948   00036A                     i2u241_41:
  2949   00036A  EFB9  F001         	goto	i2l1163
  2950   00036E                     i2u241_40:
  2951   00036E                     
  2952                           ;MCAL_layer/interrupt/mcal_interrupt_manager.c: 154:     {;MCAL_layer/interrupt/mcal_int
      +                          errupt_manager.c: 155:         TIMER2_ISR();
  2953   00036E  EC7C  F00C         	call	_TIMER2_ISR	;wreg free
  2954   000372                     i2l1163:
  2955                           
  2956                           ;MCAL_layer/interrupt/mcal_interrupt_manager.c: 159:     if((1== PIE2bits.TMR3IE) && (1=
      +                          =PIR2bits.TMR3IF))
  2957   000372  A2A0               	btfss	160,1,c	;volatile
  2958   000374  EFBE  F001         	goto	i2u242_41
  2959   000378  EFC0  F001         	goto	i2u242_40
  2960   00037C                     i2u242_41:
  2961   00037C  EFC9  F001         	goto	i2l1165
  2962   000380                     i2u242_40:
  2963   000380  A2A1               	btfss	161,1,c	;volatile
  2964   000382  EFC5  F001         	goto	i2u243_41
  2965   000386  EFC7  F001         	goto	i2u243_40
  2966   00038A                     i2u243_41:
  2967   00038A  EFC9  F001         	goto	i2l1165
  2968   00038E                     i2u243_40:
  2969   00038E                     
  2970                           ;MCAL_layer/interrupt/mcal_interrupt_manager.c: 160:     {;MCAL_layer/interrupt/mcal_int
      +                          errupt_manager.c: 161:         TIMER3_ISR();
  2971   00038E  ECED  F00B         	call	_TIMER3_ISR	;wreg free
  2972   000392                     i2l1165:
  2973                           
  2974                           ;MCAL_layer/interrupt/mcal_interrupt_manager.c: 165:     if((1== PIE1bits.CCP1IE) && (1=
      +                          =PIR1bits.CCP1IF))
  2975   000392  A49D               	btfss	157,2,c	;volatile
  2976   000394  EFCE  F001         	goto	i2u244_41
  2977   000398  EFD0  F001         	goto	i2u244_40
  2978   00039C                     i2u244_41:
  2979   00039C  EFD9  F001         	goto	i2l1167
  2980   0003A0                     i2u244_40:
  2981   0003A0  A49E               	btfss	158,2,c	;volatile
  2982   0003A2  EFD5  F001         	goto	i2u245_41
  2983   0003A6  EFD7  F001         	goto	i2u245_40
  2984   0003AA                     i2u245_41:
  2985   0003AA  EFD9  F001         	goto	i2l1167
  2986   0003AE                     i2u245_40:
  2987   0003AE                     
  2988                           ;MCAL_layer/interrupt/mcal_interrupt_manager.c: 166:     {;MCAL_layer/interrupt/mcal_int
      +                          errupt_manager.c: 167:         CCP1_ISR();
  2989   0003AE  ECA9  F00C         	call	_CCP1_ISR	;wreg free
  2990   0003B2                     i2l1167:
  2991                           
  2992                           ;MCAL_layer/interrupt/mcal_interrupt_manager.c: 171:     if((1== PIE2bits.CCP2IE) && (1=
      +                          =PIR2bits.CCP2IF))
  2993   0003B2  A0A0               	btfss	160,0,c	;volatile
  2994   0003B4  EFDE  F001         	goto	i2u246_41
  2995   0003B8  EFE0  F001         	goto	i2u246_40
  2996   0003BC                     i2u246_41:
  2997   0003BC  EFE9  F001         	goto	i2l1170
  2998   0003C0                     i2u246_40:
  2999   0003C0  A0A1               	btfss	161,0,c	;volatile
  3000   0003C2  EFE5  F001         	goto	i2u247_41
  3001   0003C6  EFE7  F001         	goto	i2u247_40
  3002   0003CA                     i2u247_41:
  3003   0003CA  EFE9  F001         	goto	i2l1170
  3004   0003CE                     i2u247_40:
  3005   0003CE                     
  3006                           ;MCAL_layer/interrupt/mcal_interrupt_manager.c: 172:     {;MCAL_layer/interrupt/mcal_int
      +                          errupt_manager.c: 173:         CCP2_ISR();
  3007   0003CE  EC3B  F00C         	call	_CCP2_ISR	;wreg free
  3008   0003D2                     i2l1170:
  3009   0003D2  C052  FFFB         	movff	??__ISR+1,pclatu
  3010   0003D6  C051  FFFA         	movff	??__ISR,pclath
  3011   0003DA  925C               	bcf	int$flags,1,c	;clear compiler interrupt flag (level 2)
  3012   0003DC  0011               	retfie		f
  3013   0003DE                     __end_of__ISR:
  3014                           	callstack 0
  3015                           
  3016 ;; *************** function _TIMER3_ISR *****************
  3017 ;; Defined at:
  3018 ;;		line 119 in file "MCAL_layer/TIMER3/TIMER3.c"
  3019 ;; Parameters:    Size  Location     Type
  3020 ;;		None
  3021 ;; Auto vars:     Size  Location     Type
  3022 ;;		None
  3023 ;; Return value:  Size  Location     Type
  3024 ;;                  1    wreg      unsigned char 
  3025 ;; Registers used:
  3026 ;;		wreg, status,2, status,0, pcl, pclath, pclatu, tosl, cstack
  3027 ;; Tracked objects:
  3028 ;;		On entry : 0/0
  3029 ;;		On exit  : 0/0
  3030 ;;		Unchanged: 0/0
  3031 ;; Data sizes:     COMRAM   BANK0   BANK1   BANK2   BANK3   BANK4   BANK5   BANK6   BANK7   BANK8   BANK9  BANK10  BANK1
      +1  BANK12  BANK13  BANK14  BANK15
  3032 ;;      Params:         0       0       0       0       0       0       0       0       0       0       0       0       
      +0       0       0       0       0
  3033 ;;      Locals:         0       0       0       0       0       0       0       0       0       0       0       0       
      +0       0       0       0       0
  3034 ;;      Temps:          0       0       0       0       0       0       0       0       0       0       0       0       
      +0       0       0       0       0
  3035 ;;      Totals:         0       0       0       0       0       0       0       0       0       0       0       0       
      +0       0       0       0       0
  3036 ;;Total ram usage:        0 bytes
  3037 ;; Hardware stack levels used: 1
  3038 ;; Hardware stack levels required when called: 1
  3039 ;; This function calls:
  3040 ;;		NULL
  3041 ;;		_APP_TIMER3_ISR
  3042 ;; This function is called by:
  3043 ;;		__ISR
  3044 ;; This function uses a non-reentrant model
  3045 ;;
  3046                           
  3047                           	psect	text16
  3048   0017DA                     __ptext16:
  3049                           	callstack 0
  3050   0017DA                     _TIMER3_ISR:
  3051                           	callstack 25
  3052   0017DA                     
  3053                           ;MCAL_layer/TIMER3/TIMER3.c: 122:     PIR2bits.TMR3IF = 0;
  3054   0017DA  92A1               	bcf	161,1,c	;volatile
  3055   0017DC                     
  3056                           ;MCAL_layer/TIMER3/TIMER3.c: 124:     TMR3H = (uint8)(timer3_preload>>8);
  3057   0017DC  5004               	movf	(_timer3_preload+1)^0,w,c
  3058   0017DE  6EB3               	movwf	179,c	;volatile
  3059   0017E0                     
  3060                           ;MCAL_layer/TIMER3/TIMER3.c: 125:     TMR3L = (uint8)(timer3_preload);
  3061   0017E0  C003  FFB2         	movff	_timer3_preload,4018	;volatile
  3062   0017E4                     
  3063                           ;MCAL_layer/TIMER3/TIMER3.c: 127:     if(TIMER3_INTERRUPT_HANDLER_CALL_BACK)
  3064   0017E4  5001               	movf	_TIMER3_INTERRUPT_HANDLER_CALL_BACK^0,w,c
  3065   0017E6  1002               	iorwf	(_TIMER3_INTERRUPT_HANDLER_CALL_BACK+1)^0,w,c
  3066   0017E8  B4D8               	btfsc	status,2,c
  3067   0017EA  EFF9  F00B         	goto	i2u69_41
  3068   0017EE  EFFB  F00B         	goto	i2u69_40
  3069   0017F2                     i2u69_41:
  3070   0017F2  EF07  F00C         	goto	i2l1417
  3071   0017F6                     i2u69_40:
  3072   0017F6                     
  3073                           ;MCAL_layer/TIMER3/TIMER3.c: 128:      {;MCAL_layer/TIMER3/TIMER3.c: 129:         TIMER3
      +                          _INTERRUPT_HANDLER_CALL_BACK();
  3074   0017F6  D802               	call	i2u70_48
  3075   0017F8  EF07  F00C         	goto	i2u70_49
  3076   0017FC                     i2u70_48:
  3077   0017FC  0005               	push	
  3078   0017FE  6EFA               	movwf	pclath,c
  3079   001800  5001               	movf	_TIMER3_INTERRUPT_HANDLER_CALL_BACK^0,w,c
  3080   001802  6EFD               	movwf	tosl,c
  3081   001804  5002               	movf	(_TIMER3_INTERRUPT_HANDLER_CALL_BACK+1)^0,w,c
  3082   001806  6EFE               	movwf	tosh,c
  3083   001808  6AFF               	clrf	tosu,c
  3084   00180A  50FA               	movf	pclath,w,c
  3085   00180C  0012               	return		;indir
  3086   00180E                     i2u70_49:
  3087   00180E                     i2l1417:
  3088   00180E  0012               	return		;funcret
  3089   001810                     __end_of_TIMER3_ISR:
  3090                           	callstack 0
  3091                           
  3092 ;; *************** function _APP_TIMER3_ISR *****************
  3093 ;; Defined at:
  3094 ;;		line 34 in file "application.c"
  3095 ;; Parameters:    Size  Location     Type
  3096 ;;		None
  3097 ;; Auto vars:     Size  Location     Type
  3098 ;;		None
  3099 ;; Return value:  Size  Location     Type
  3100 ;;                  1    wreg      unsigned char 
  3101 ;; Registers used:
  3102 ;;		None
  3103 ;; Tracked objects:
  3104 ;;		On entry : 0/0
  3105 ;;		On exit  : 0/0
  3106 ;;		Unchanged: 0/0
  3107 ;; Data sizes:     COMRAM   BANK0   BANK1   BANK2   BANK3   BANK4   BANK5   BANK6   BANK7   BANK8   BANK9  BANK10  BANK1
      +1  BANK12  BANK13  BANK14  BANK15
  3108 ;;      Params:         0       0       0       0       0       0       0       0       0       0       0       0       
      +0       0       0       0       0
  3109 ;;      Locals:         0       0       0       0       0       0       0       0       0       0       0       0       
      +0       0       0       0       0
  3110 ;;      Temps:          0       0       0       0       0       0       0       0       0       0       0       0       
      +0       0       0       0       0
  3111 ;;      Totals:         0       0       0       0       0       0       0       0       0       0       0       0       
      +0       0       0       0       0
  3112 ;;Total ram usage:        0 bytes
  3113 ;; Hardware stack levels used: 1
  3114 ;; This function calls:
  3115 ;;		Nothing
  3116 ;; This function is called by:
  3117 ;;		_TIMER3_ISR
  3118 ;; This function uses a non-reentrant model
  3119 ;;
  3120                           
  3121                           	psect	text17
  3122   00195C                     __ptext17:
  3123                           	callstack 0
  3124   00195C                     _APP_TIMER3_ISR:
  3125                           	callstack 25
  3126   00195C  0012               	return		;funcret
  3127   00195E                     __end_of_APP_TIMER3_ISR:
  3128                           	callstack 0
  3129                           
  3130 ;; *************** function _TIMER2_ISR *****************
  3131 ;; Defined at:
  3132 ;;		line 116 in file "MCAL_layer/TIMER2/TIMER2.c"
  3133 ;; Parameters:    Size  Location     Type
  3134 ;;		None
  3135 ;; Auto vars:     Size  Location     Type
  3136 ;;		None
  3137 ;; Return value:  Size  Location     Type
  3138 ;;                  1    wreg      unsigned char 
  3139 ;; Registers used:
  3140 ;;		None
  3141 ;; Tracked objects:
  3142 ;;		On entry : 0/0
  3143 ;;		On exit  : 0/0
  3144 ;;		Unchanged: 0/0
  3145 ;; Data sizes:     COMRAM   BANK0   BANK1   BANK2   BANK3   BANK4   BANK5   BANK6   BANK7   BANK8   BANK9  BANK10  BANK1
      +1  BANK12  BANK13  BANK14  BANK15
  3146 ;;      Params:         0       0       0       0       0       0       0       0       0       0       0       0       
      +0       0       0       0       0
  3147 ;;      Locals:         0       0       0       0       0       0       0       0       0       0       0       0       
      +0       0       0       0       0
  3148 ;;      Temps:          0       0       0       0       0       0       0       0       0       0       0       0       
      +0       0       0       0       0
  3149 ;;      Totals:         0       0       0       0       0       0       0       0       0       0       0       0       
      +0       0       0       0       0
  3150 ;;Total ram usage:        0 bytes
  3151 ;; Hardware stack levels used: 1
  3152 ;; This function calls:
  3153 ;;		Nothing
  3154 ;; This function is called by:
  3155 ;;		__ISR
  3156 ;; This function uses a non-reentrant model
  3157 ;;
  3158                           
  3159                           	psect	text18
  3160   0018F8                     __ptext18:
  3161                           	callstack 0
  3162   0018F8                     _TIMER2_ISR:
  3163                           	callstack 26
  3164   0018F8                     
  3165                           ;MCAL_layer/TIMER2/TIMER2.c: 119:     PIR1bits.TMR2IF = 0;
  3166   0018F8  929E               	bcf	158,1,c	;volatile
  3167                           
  3168                           ;MCAL_layer/TIMER2/TIMER2.c: 121:     TMR2 = (uint8)(timer2_preload);
  3169   0018FA  C02D  FFCC         	movff	_timer2_preload,4044	;volatile
  3170   0018FE  0012               	return		;funcret
  3171   001900                     __end_of_TIMER2_ISR:
  3172                           	callstack 0
  3173                           
  3174 ;; *************** function _TIMER1_ISR *****************
  3175 ;; Defined at:
  3176 ;;		line 132 in file "MCAL_layer/TIMER1/TIMER1.c"
  3177 ;; Parameters:    Size  Location     Type
  3178 ;;		None
  3179 ;; Auto vars:     Size  Location     Type
  3180 ;;		None
  3181 ;; Return value:  Size  Location     Type
  3182 ;;                  1    wreg      unsigned char 
  3183 ;; Registers used:
  3184 ;;		wreg, status,2
  3185 ;; Tracked objects:
  3186 ;;		On entry : 0/0
  3187 ;;		On exit  : 0/0
  3188 ;;		Unchanged: 0/0
  3189 ;; Data sizes:     COMRAM   BANK0   BANK1   BANK2   BANK3   BANK4   BANK5   BANK6   BANK7   BANK8   BANK9  BANK10  BANK1
      +1  BANK12  BANK13  BANK14  BANK15
  3190 ;;      Params:         0       0       0       0       0       0       0       0       0       0       0       0       
      +0       0       0       0       0
  3191 ;;      Locals:         0       0       0       0       0       0       0       0       0       0       0       0       
      +0       0       0       0       0
  3192 ;;      Temps:          0       0       0       0       0       0       0       0       0       0       0       0       
      +0       0       0       0       0
  3193 ;;      Totals:         0       0       0       0       0       0       0       0       0       0       0       0       
      +0       0       0       0       0
  3194 ;;Total ram usage:        0 bytes
  3195 ;; Hardware stack levels used: 1
  3196 ;; This function calls:
  3197 ;;		Nothing
  3198 ;; This function is called by:
  3199 ;;		__ISR
  3200 ;; This function uses a non-reentrant model
  3201 ;;
  3202                           
  3203                           	psect	text19
  3204   0018E0                     __ptext19:
  3205                           	callstack 0
  3206   0018E0                     _TIMER1_ISR:
  3207                           	callstack 26
  3208   0018E0                     
  3209                           ;MCAL_layer/TIMER1/TIMER1.c: 135:     PIR1bits.TMR1IF = 0;
  3210   0018E0  909E               	bcf	158,0,c	;volatile
  3211   0018E2                     
  3212                           ;MCAL_layer/TIMER1/TIMER1.c: 137:     TMR1H = (uint8)(timer1_preload>>8);
  3213   0018E2  500A               	movf	(_timer1_preload+1)^0,w,c
  3214   0018E4  6ECF               	movwf	207,c	;volatile
  3215   0018E6                     
  3216                           ;MCAL_layer/TIMER1/TIMER1.c: 138:     TMR1L = (uint8)(timer1_preload);
  3217   0018E6  C009  FFCE         	movff	_timer1_preload,4046	;volatile
  3218   0018EA  0012               	return		;funcret
  3219   0018EC                     __end_of_TIMER1_ISR:
  3220                           	callstack 0
  3221                           
  3222 ;; *************** function _TIMER0_ISR *****************
  3223 ;; Defined at:
  3224 ;;		line 197 in file "MCAL_layer/TIMER0/TIMER0.c"
  3225 ;; Parameters:    Size  Location     Type
  3226 ;;		None
  3227 ;; Auto vars:     Size  Location     Type
  3228 ;;		None
  3229 ;; Return value:  Size  Location     Type
  3230 ;;                  1    wreg      unsigned char 
  3231 ;; Registers used:
  3232 ;;		wreg, status,2
  3233 ;; Tracked objects:
  3234 ;;		On entry : 0/0
  3235 ;;		On exit  : 0/0
  3236 ;;		Unchanged: 0/0
  3237 ;; Data sizes:     COMRAM   BANK0   BANK1   BANK2   BANK3   BANK4   BANK5   BANK6   BANK7   BANK8   BANK9  BANK10  BANK1
      +1  BANK12  BANK13  BANK14  BANK15
  3238 ;;      Params:         0       0       0       0       0       0       0       0       0       0       0       0       
      +0       0       0       0       0
  3239 ;;      Locals:         0       0       0       0       0       0       0       0       0       0       0       0       
      +0       0       0       0       0
  3240 ;;      Temps:          0       0       0       0       0       0       0       0       0       0       0       0       
      +0       0       0       0       0
  3241 ;;      Totals:         0       0       0       0       0       0       0       0       0       0       0       0       
      +0       0       0       0       0
  3242 ;;Total ram usage:        0 bytes
  3243 ;; Hardware stack levels used: 1
  3244 ;; This function calls:
  3245 ;;		Nothing
  3246 ;; This function is called by:
  3247 ;;		__ISR
  3248 ;; This function uses a non-reentrant model
  3249 ;;
  3250                           
  3251                           	psect	text20
  3252   0018EC                     __ptext20:
  3253                           	callstack 0
  3254   0018EC                     _TIMER0_ISR:
  3255                           	callstack 26
  3256   0018EC                     
  3257                           ;MCAL_layer/TIMER0/TIMER0.c: 200:     INTCONbits.TMR0IF = 0;
  3258   0018EC  94F2               	bcf	242,2,c	;volatile
  3259   0018EE                     
  3260                           ;MCAL_layer/TIMER0/TIMER0.c: 202:     TMR0H = (uint8)(timer0_preload>>8);
  3261   0018EE  500E               	movf	(_timer0_preload+1)^0,w,c
  3262   0018F0  6ED7               	movwf	215,c	;volatile
  3263   0018F2                     
  3264                           ;MCAL_layer/TIMER0/TIMER0.c: 203:     TMR0L = (uint8)(timer0_preload);
  3265   0018F2  C00D  FFD6         	movff	_timer0_preload,4054	;volatile
  3266   0018F6  0012               	return		;funcret
  3267   0018F8                     __end_of_TIMER0_ISR:
  3268                           	callstack 0
  3269                           
  3270 ;; *************** function _RB7_ISR_low *****************
  3271 ;; Defined at:
  3272 ;;		line 999 in file "MCAL_layer/interrupt/mcal_external_interrupt.c"
  3273 ;; Parameters:    Size  Location     Type
  3274 ;;		None
  3275 ;; Auto vars:     Size  Location     Type
  3276 ;;  dummy           1    0[COMRAM] volatile unsigned char 
  3277 ;; Return value:  Size  Location     Type
  3278 ;;                  1    wreg      unsigned char 
  3279 ;; Registers used:
  3280 ;;		None
  3281 ;; Tracked objects:
  3282 ;;		On entry : 0/0
  3283 ;;		On exit  : 0/0
  3284 ;;		Unchanged: 0/0
  3285 ;; Data sizes:     COMRAM   BANK0   BANK1   BANK2   BANK3   BANK4   BANK5   BANK6   BANK7   BANK8   BANK9  BANK10  BANK1
      +1  BANK12  BANK13  BANK14  BANK15
  3286 ;;      Params:         0       0       0       0       0       0       0       0       0       0       0       0       
      +0       0       0       0       0
  3287 ;;      Locals:         1       0       0       0       0       0       0       0       0       0       0       0       
      +0       0       0       0       0
  3288 ;;      Temps:          0       0       0       0       0       0       0       0       0       0       0       0       
      +0       0       0       0       0
  3289 ;;      Totals:         1       0       0       0       0       0       0       0       0       0       0       0       
      +0       0       0       0       0
  3290 ;;Total ram usage:        1 bytes
  3291 ;; Hardware stack levels used: 1
  3292 ;; This function calls:
  3293 ;;		Nothing
  3294 ;; This function is called by:
  3295 ;;		__ISR
  3296 ;; This function uses a non-reentrant model
  3297 ;;
  3298                           
  3299                           	psect	text21
  3300   001900                     __ptext21:
  3301                           	callstack 0
  3302   001900                     _RB7_ISR_low:
  3303                           	callstack 26
  3304   001900                     
  3305                           ;MCAL_layer/interrupt/mcal_external_interrupt.c: 1004:     volatile uint8 dummy = PORTB 
      +                          ;
  3306   001900  CF81 F050          	movff	3969,RB7_ISR_low@dummy	;volatile
  3307                           
  3308                           ;MCAL_layer/interrupt/mcal_external_interrupt.c: 1006:      (INTCONbits.RBIF = 0);
  3309   001904  90F2               	bcf	242,0,c	;volatile
  3310   001906  0012               	return		;funcret
  3311   001908                     __end_of_RB7_ISR_low:
  3312                           	callstack 0
  3313                           
  3314 ;; *************** function _RB7_ISR_high *****************
  3315 ;; Defined at:
  3316 ;;		line 981 in file "MCAL_layer/interrupt/mcal_external_interrupt.c"
  3317 ;; Parameters:    Size  Location     Type
  3318 ;;		None
  3319 ;; Auto vars:     Size  Location     Type
  3320 ;;  dummy           1    0[COMRAM] volatile unsigned char 
  3321 ;; Return value:  Size  Location     Type
  3322 ;;                  1    wreg      unsigned char 
  3323 ;; Registers used:
  3324 ;;		None
  3325 ;; Tracked objects:
  3326 ;;		On entry : 0/0
  3327 ;;		On exit  : 0/0
  3328 ;;		Unchanged: 0/0
  3329 ;; Data sizes:     COMRAM   BANK0   BANK1   BANK2   BANK3   BANK4   BANK5   BANK6   BANK7   BANK8   BANK9  BANK10  BANK1
      +1  BANK12  BANK13  BANK14  BANK15
  3330 ;;      Params:         0       0       0       0       0       0       0       0       0       0       0       0       
      +0       0       0       0       0
  3331 ;;      Locals:         1       0       0       0       0       0       0       0       0       0       0       0       
      +0       0       0       0       0
  3332 ;;      Temps:          0       0       0       0       0       0       0       0       0       0       0       0       
      +0       0       0       0       0
  3333 ;;      Totals:         1       0       0       0       0       0       0       0       0       0       0       0       
      +0       0       0       0       0
  3334 ;;Total ram usage:        1 bytes
  3335 ;; Hardware stack levels used: 1
  3336 ;; This function calls:
  3337 ;;		Nothing
  3338 ;; This function is called by:
  3339 ;;		__ISR
  3340 ;; This function uses a non-reentrant model
  3341 ;;
  3342                           
  3343                           	psect	text22
  3344   001908                     __ptext22:
  3345                           	callstack 0
  3346   001908                     _RB7_ISR_high:
  3347                           	callstack 26
  3348   001908                     
  3349                           ;MCAL_layer/interrupt/mcal_external_interrupt.c: 986:     volatile uint8 dummy = PORTB ;
  3350   001908  CF81 F050          	movff	3969,RB7_ISR_high@dummy	;volatile
  3351                           
  3352                           ;MCAL_layer/interrupt/mcal_external_interrupt.c: 988:      (INTCONbits.RBIF = 0);
  3353   00190C  90F2               	bcf	242,0,c	;volatile
  3354   00190E  0012               	return		;funcret
  3355   001910                     __end_of_RB7_ISR_high:
  3356                           	callstack 0
  3357                           
  3358 ;; *************** function _RB6_ISR_low *****************
  3359 ;; Defined at:
  3360 ;;		line 961 in file "MCAL_layer/interrupt/mcal_external_interrupt.c"
  3361 ;; Parameters:    Size  Location     Type
  3362 ;;		None
  3363 ;; Auto vars:     Size  Location     Type
  3364 ;;  dummy           1    0[COMRAM] volatile unsigned char 
  3365 ;; Return value:  Size  Location     Type
  3366 ;;                  1    wreg      unsigned char 
  3367 ;; Registers used:
  3368 ;;		None
  3369 ;; Tracked objects:
  3370 ;;		On entry : 0/0
  3371 ;;		On exit  : 0/0
  3372 ;;		Unchanged: 0/0
  3373 ;; Data sizes:     COMRAM   BANK0   BANK1   BANK2   BANK3   BANK4   BANK5   BANK6   BANK7   BANK8   BANK9  BANK10  BANK1
      +1  BANK12  BANK13  BANK14  BANK15
  3374 ;;      Params:         0       0       0       0       0       0       0       0       0       0       0       0       
      +0       0       0       0       0
  3375 ;;      Locals:         1       0       0       0       0       0       0       0       0       0       0       0       
      +0       0       0       0       0
  3376 ;;      Temps:          0       0       0       0       0       0       0       0       0       0       0       0       
      +0       0       0       0       0
  3377 ;;      Totals:         1       0       0       0       0       0       0       0       0       0       0       0       
      +0       0       0       0       0
  3378 ;;Total ram usage:        1 bytes
  3379 ;; Hardware stack levels used: 1
  3380 ;; This function calls:
  3381 ;;		Nothing
  3382 ;; This function is called by:
  3383 ;;		__ISR
  3384 ;; This function uses a non-reentrant model
  3385 ;;
  3386                           
  3387                           	psect	text23
  3388   001910                     __ptext23:
  3389                           	callstack 0
  3390   001910                     _RB6_ISR_low:
  3391                           	callstack 26
  3392   001910                     
  3393                           ;MCAL_layer/interrupt/mcal_external_interrupt.c: 966:     volatile uint8 dummy = PORTB ;
  3394   001910  CF81 F050          	movff	3969,RB6_ISR_low@dummy	;volatile
  3395                           
  3396                           ;MCAL_layer/interrupt/mcal_external_interrupt.c: 968:      (INTCONbits.RBIF = 0);
  3397   001914  90F2               	bcf	242,0,c	;volatile
  3398   001916  0012               	return		;funcret
  3399   001918                     __end_of_RB6_ISR_low:
  3400                           	callstack 0
  3401                           
  3402 ;; *************** function _RB6_ISR_high *****************
  3403 ;; Defined at:
  3404 ;;		line 943 in file "MCAL_layer/interrupt/mcal_external_interrupt.c"
  3405 ;; Parameters:    Size  Location     Type
  3406 ;;		None
  3407 ;; Auto vars:     Size  Location     Type
  3408 ;;  dummy           1    0[COMRAM] volatile unsigned char 
  3409 ;; Return value:  Size  Location     Type
  3410 ;;                  1    wreg      unsigned char 
  3411 ;; Registers used:
  3412 ;;		None
  3413 ;; Tracked objects:
  3414 ;;		On entry : 0/0
  3415 ;;		On exit  : 0/0
  3416 ;;		Unchanged: 0/0
  3417 ;; Data sizes:     COMRAM   BANK0   BANK1   BANK2   BANK3   BANK4   BANK5   BANK6   BANK7   BANK8   BANK9  BANK10  BANK1
      +1  BANK12  BANK13  BANK14  BANK15
  3418 ;;      Params:         0       0       0       0       0       0       0       0       0       0       0       0       
      +0       0       0       0       0
  3419 ;;      Locals:         1       0       0       0       0       0       0       0       0       0       0       0       
      +0       0       0       0       0
  3420 ;;      Temps:          0       0       0       0       0       0       0       0       0       0       0       0       
      +0       0       0       0       0
  3421 ;;      Totals:         1       0       0       0       0       0       0       0       0       0       0       0       
      +0       0       0       0       0
  3422 ;;Total ram usage:        1 bytes
  3423 ;; Hardware stack levels used: 1
  3424 ;; This function calls:
  3425 ;;		Nothing
  3426 ;; This function is called by:
  3427 ;;		__ISR
  3428 ;; This function uses a non-reentrant model
  3429 ;;
  3430                           
  3431                           	psect	text24
  3432   001918                     __ptext24:
  3433                           	callstack 0
  3434   001918                     _RB6_ISR_high:
  3435                           	callstack 26
  3436   001918                     
  3437                           ;MCAL_layer/interrupt/mcal_external_interrupt.c: 948:     volatile uint8 dummy = PORTB ;
  3438   001918  CF81 F050          	movff	3969,RB6_ISR_high@dummy	;volatile
  3439                           
  3440                           ;MCAL_layer/interrupt/mcal_external_interrupt.c: 950:      (INTCONbits.RBIF = 0);
  3441   00191C  90F2               	bcf	242,0,c	;volatile
  3442   00191E  0012               	return		;funcret
  3443   001920                     __end_of_RB6_ISR_high:
  3444                           	callstack 0
  3445                           
  3446 ;; *************** function _RB5_ISR_low *****************
  3447 ;; Defined at:
  3448 ;;		line 924 in file "MCAL_layer/interrupt/mcal_external_interrupt.c"
  3449 ;; Parameters:    Size  Location     Type
  3450 ;;		None
  3451 ;; Auto vars:     Size  Location     Type
  3452 ;;  dummy           1    0[COMRAM] volatile unsigned char 
  3453 ;; Return value:  Size  Location     Type
  3454 ;;                  1    wreg      unsigned char 
  3455 ;; Registers used:
  3456 ;;		None
  3457 ;; Tracked objects:
  3458 ;;		On entry : 0/0
  3459 ;;		On exit  : 0/0
  3460 ;;		Unchanged: 0/0
  3461 ;; Data sizes:     COMRAM   BANK0   BANK1   BANK2   BANK3   BANK4   BANK5   BANK6   BANK7   BANK8   BANK9  BANK10  BANK1
      +1  BANK12  BANK13  BANK14  BANK15
  3462 ;;      Params:         0       0       0       0       0       0       0       0       0       0       0       0       
      +0       0       0       0       0
  3463 ;;      Locals:         1       0       0       0       0       0       0       0       0       0       0       0       
      +0       0       0       0       0
  3464 ;;      Temps:          0       0       0       0       0       0       0       0       0       0       0       0       
      +0       0       0       0       0
  3465 ;;      Totals:         1       0       0       0       0       0       0       0       0       0       0       0       
      +0       0       0       0       0
  3466 ;;Total ram usage:        1 bytes
  3467 ;; Hardware stack levels used: 1
  3468 ;; This function calls:
  3469 ;;		Nothing
  3470 ;; This function is called by:
  3471 ;;		__ISR
  3472 ;; This function uses a non-reentrant model
  3473 ;;
  3474                           
  3475                           	psect	text25
  3476   001920                     __ptext25:
  3477                           	callstack 0
  3478   001920                     _RB5_ISR_low:
  3479                           	callstack 26
  3480   001920                     
  3481                           ;MCAL_layer/interrupt/mcal_external_interrupt.c: 929:     volatile uint8 dummy = PORTB ;
  3482   001920  CF81 F050          	movff	3969,RB5_ISR_low@dummy	;volatile
  3483                           
  3484                           ;MCAL_layer/interrupt/mcal_external_interrupt.c: 931:      (INTCONbits.RBIF = 0);
  3485   001924  90F2               	bcf	242,0,c	;volatile
  3486   001926  0012               	return		;funcret
  3487   001928                     __end_of_RB5_ISR_low:
  3488                           	callstack 0
  3489                           
  3490 ;; *************** function _RB5_ISR_high *****************
  3491 ;; Defined at:
  3492 ;;		line 906 in file "MCAL_layer/interrupt/mcal_external_interrupt.c"
  3493 ;; Parameters:    Size  Location     Type
  3494 ;;		None
  3495 ;; Auto vars:     Size  Location     Type
  3496 ;;  dummy           1    0[COMRAM] volatile unsigned char 
  3497 ;; Return value:  Size  Location     Type
  3498 ;;                  1    wreg      unsigned char 
  3499 ;; Registers used:
  3500 ;;		None
  3501 ;; Tracked objects:
  3502 ;;		On entry : 0/0
  3503 ;;		On exit  : 0/0
  3504 ;;		Unchanged: 0/0
  3505 ;; Data sizes:     COMRAM   BANK0   BANK1   BANK2   BANK3   BANK4   BANK5   BANK6   BANK7   BANK8   BANK9  BANK10  BANK1
      +1  BANK12  BANK13  BANK14  BANK15
  3506 ;;      Params:         0       0       0       0       0       0       0       0       0       0       0       0       
      +0       0       0       0       0
  3507 ;;      Locals:         1       0       0       0       0       0       0       0       0       0       0       0       
      +0       0       0       0       0
  3508 ;;      Temps:          0       0       0       0       0       0       0       0       0       0       0       0       
      +0       0       0       0       0
  3509 ;;      Totals:         1       0       0       0       0       0       0       0       0       0       0       0       
      +0       0       0       0       0
  3510 ;;Total ram usage:        1 bytes
  3511 ;; Hardware stack levels used: 1
  3512 ;; This function calls:
  3513 ;;		Nothing
  3514 ;; This function is called by:
  3515 ;;		__ISR
  3516 ;; This function uses a non-reentrant model
  3517 ;;
  3518                           
  3519                           	psect	text26
  3520   001928                     __ptext26:
  3521                           	callstack 0
  3522   001928                     _RB5_ISR_high:
  3523                           	callstack 26
  3524   001928                     
  3525                           ;MCAL_layer/interrupt/mcal_external_interrupt.c: 911:     volatile uint8 dummy = PORTB ;
  3526   001928  CF81 F050          	movff	3969,RB5_ISR_high@dummy	;volatile
  3527                           
  3528                           ;MCAL_layer/interrupt/mcal_external_interrupt.c: 913:      (INTCONbits.RBIF = 0);
  3529   00192C  90F2               	bcf	242,0,c	;volatile
  3530   00192E  0012               	return		;funcret
  3531   001930                     __end_of_RB5_ISR_high:
  3532                           	callstack 0
  3533                           
  3534 ;; *************** function _RB4_ISR_low *****************
  3535 ;; Defined at:
  3536 ;;		line 887 in file "MCAL_layer/interrupt/mcal_external_interrupt.c"
  3537 ;; Parameters:    Size  Location     Type
  3538 ;;		None
  3539 ;; Auto vars:     Size  Location     Type
  3540 ;;  dummy           1    0[COMRAM] volatile unsigned char 
  3541 ;; Return value:  Size  Location     Type
  3542 ;;                  1    wreg      unsigned char 
  3543 ;; Registers used:
  3544 ;;		None
  3545 ;; Tracked objects:
  3546 ;;		On entry : 0/0
  3547 ;;		On exit  : 0/0
  3548 ;;		Unchanged: 0/0
  3549 ;; Data sizes:     COMRAM   BANK0   BANK1   BANK2   BANK3   BANK4   BANK5   BANK6   BANK7   BANK8   BANK9  BANK10  BANK1
      +1  BANK12  BANK13  BANK14  BANK15
  3550 ;;      Params:         0       0       0       0       0       0       0       0       0       0       0       0       
      +0       0       0       0       0
  3551 ;;      Locals:         1       0       0       0       0       0       0       0       0       0       0       0       
      +0       0       0       0       0
  3552 ;;      Temps:          0       0       0       0       0       0       0       0       0       0       0       0       
      +0       0       0       0       0
  3553 ;;      Totals:         1       0       0       0       0       0       0       0       0       0       0       0       
      +0       0       0       0       0
  3554 ;;Total ram usage:        1 bytes
  3555 ;; Hardware stack levels used: 1
  3556 ;; This function calls:
  3557 ;;		Nothing
  3558 ;; This function is called by:
  3559 ;;		__ISR
  3560 ;; This function uses a non-reentrant model
  3561 ;;
  3562                           
  3563                           	psect	text27
  3564   001930                     __ptext27:
  3565                           	callstack 0
  3566   001930                     _RB4_ISR_low:
  3567                           	callstack 26
  3568   001930                     
  3569                           ;MCAL_layer/interrupt/mcal_external_interrupt.c: 892:     volatile uint8 dummy = PORTB ;
  3570   001930  CF81 F050          	movff	3969,RB4_ISR_low@dummy	;volatile
  3571                           
  3572                           ;MCAL_layer/interrupt/mcal_external_interrupt.c: 894:      (INTCONbits.RBIF = 0);
  3573   001934  90F2               	bcf	242,0,c	;volatile
  3574   001936  0012               	return		;funcret
  3575   001938                     __end_of_RB4_ISR_low:
  3576                           	callstack 0
  3577                           
  3578 ;; *************** function _RB4_ISR_high *****************
  3579 ;; Defined at:
  3580 ;;		line 868 in file "MCAL_layer/interrupt/mcal_external_interrupt.c"
  3581 ;; Parameters:    Size  Location     Type
  3582 ;;		None
  3583 ;; Auto vars:     Size  Location     Type
  3584 ;;  dummy           1    0[COMRAM] volatile unsigned char 
  3585 ;; Return value:  Size  Location     Type
  3586 ;;                  1    wreg      unsigned char 
  3587 ;; Registers used:
  3588 ;;		None
  3589 ;; Tracked objects:
  3590 ;;		On entry : 0/0
  3591 ;;		On exit  : 0/0
  3592 ;;		Unchanged: 0/0
  3593 ;; Data sizes:     COMRAM   BANK0   BANK1   BANK2   BANK3   BANK4   BANK5   BANK6   BANK7   BANK8   BANK9  BANK10  BANK1
      +1  BANK12  BANK13  BANK14  BANK15
  3594 ;;      Params:         0       0       0       0       0       0       0       0       0       0       0       0       
      +0       0       0       0       0
  3595 ;;      Locals:         1       0       0       0       0       0       0       0       0       0       0       0       
      +0       0       0       0       0
  3596 ;;      Temps:          0       0       0       0       0       0       0       0       0       0       0       0       
      +0       0       0       0       0
  3597 ;;      Totals:         1       0       0       0       0       0       0       0       0       0       0       0       
      +0       0       0       0       0
  3598 ;;Total ram usage:        1 bytes
  3599 ;; Hardware stack levels used: 1
  3600 ;; This function calls:
  3601 ;;		Nothing
  3602 ;; This function is called by:
  3603 ;;		__ISR
  3604 ;; This function uses a non-reentrant model
  3605 ;;
  3606                           
  3607                           	psect	text28
  3608   001938                     __ptext28:
  3609                           	callstack 0
  3610   001938                     _RB4_ISR_high:
  3611                           	callstack 26
  3612   001938                     
  3613                           ;MCAL_layer/interrupt/mcal_external_interrupt.c: 873:     volatile uint8 dummy = PORTB ;
  3614   001938  CF81 F050          	movff	3969,RB4_ISR_high@dummy	;volatile
  3615                           
  3616                           ;MCAL_layer/interrupt/mcal_external_interrupt.c: 875:      (INTCONbits.RBIF = 0);
  3617   00193C  90F2               	bcf	242,0,c	;volatile
  3618   00193E  0012               	return		;funcret
  3619   001940                     __end_of_RB4_ISR_high:
  3620                           	callstack 0
  3621                           
  3622 ;; *************** function _INT2_ISR *****************
  3623 ;; Defined at:
  3624 ;;		line 853 in file "MCAL_layer/interrupt/mcal_external_interrupt.c"
  3625 ;; Parameters:    Size  Location     Type
  3626 ;;		None
  3627 ;; Auto vars:     Size  Location     Type
  3628 ;;		None
  3629 ;; Return value:  Size  Location     Type
  3630 ;;                  1    wreg      unsigned char 
  3631 ;; Registers used:
  3632 ;;		None
  3633 ;; Tracked objects:
  3634 ;;		On entry : 0/0
  3635 ;;		On exit  : 0/0
  3636 ;;		Unchanged: 0/0
  3637 ;; Data sizes:     COMRAM   BANK0   BANK1   BANK2   BANK3   BANK4   BANK5   BANK6   BANK7   BANK8   BANK9  BANK10  BANK1
      +1  BANK12  BANK13  BANK14  BANK15
  3638 ;;      Params:         0       0       0       0       0       0       0       0       0       0       0       0       
      +0       0       0       0       0
  3639 ;;      Locals:         0       0       0       0       0       0       0       0       0       0       0       0       
      +0       0       0       0       0
  3640 ;;      Temps:          0       0       0       0       0       0       0       0       0       0       0       0       
      +0       0       0       0       0
  3641 ;;      Totals:         0       0       0       0       0       0       0       0       0       0       0       0       
      +0       0       0       0       0
  3642 ;;Total ram usage:        0 bytes
  3643 ;; Hardware stack levels used: 1
  3644 ;; This function calls:
  3645 ;;		Nothing
  3646 ;; This function is called by:
  3647 ;;		__ISR
  3648 ;; This function uses a non-reentrant model
  3649 ;;
  3650                           
  3651                           	psect	text29
  3652   001946                     __ptext29:
  3653                           	callstack 0
  3654   001946                     _INT2_ISR:
  3655                           	callstack 26
  3656   001946                     
  3657                           ;MCAL_layer/interrupt/mcal_external_interrupt.c: 856:     (INTCON3bits.INT2IF = 0);
  3658   001946  92F0               	bcf	240,1,c	;volatile
  3659   001948  0012               	return		;funcret
  3660   00194A                     __end_of_INT2_ISR:
  3661                           	callstack 0
  3662                           
  3663 ;; *************** function _INT1_ISR *****************
  3664 ;; Defined at:
  3665 ;;		line 841 in file "MCAL_layer/interrupt/mcal_external_interrupt.c"
  3666 ;; Parameters:    Size  Location     Type
  3667 ;;		None
  3668 ;; Auto vars:     Size  Location     Type
  3669 ;;		None
  3670 ;; Return value:  Size  Location     Type
  3671 ;;                  1    wreg      unsigned char 
  3672 ;; Registers used:
  3673 ;;		None
  3674 ;; Tracked objects:
  3675 ;;		On entry : 0/0
  3676 ;;		On exit  : 0/0
  3677 ;;		Unchanged: 0/0
  3678 ;; Data sizes:     COMRAM   BANK0   BANK1   BANK2   BANK3   BANK4   BANK5   BANK6   BANK7   BANK8   BANK9  BANK10  BANK1
      +1  BANK12  BANK13  BANK14  BANK15
  3679 ;;      Params:         0       0       0       0       0       0       0       0       0       0       0       0       
      +0       0       0       0       0
  3680 ;;      Locals:         0       0       0       0       0       0       0       0       0       0       0       0       
      +0       0       0       0       0
  3681 ;;      Temps:          0       0       0       0       0       0       0       0       0       0       0       0       
      +0       0       0       0       0
  3682 ;;      Totals:         0       0       0       0       0       0       0       0       0       0       0       0       
      +0       0       0       0       0
  3683 ;;Total ram usage:        0 bytes
  3684 ;; Hardware stack levels used: 1
  3685 ;; This function calls:
  3686 ;;		Nothing
  3687 ;; This function is called by:
  3688 ;;		__ISR
  3689 ;; This function uses a non-reentrant model
  3690 ;;
  3691                           
  3692                           	psect	text30
  3693   00194A                     __ptext30:
  3694                           	callstack 0
  3695   00194A                     _INT1_ISR:
  3696                           	callstack 26
  3697   00194A                     
  3698                           ;MCAL_layer/interrupt/mcal_external_interrupt.c: 844:     (INTCON3bits.INT1IF = 0);
  3699   00194A  90F0               	bcf	240,0,c	;volatile
  3700   00194C  0012               	return		;funcret
  3701   00194E                     __end_of_INT1_ISR:
  3702                           	callstack 0
  3703                           
  3704 ;; *************** function _INT0_ISR *****************
  3705 ;; Defined at:
  3706 ;;		line 829 in file "MCAL_layer/interrupt/mcal_external_interrupt.c"
  3707 ;; Parameters:    Size  Location     Type
  3708 ;;		None
  3709 ;; Auto vars:     Size  Location     Type
  3710 ;;		None
  3711 ;; Return value:  Size  Location     Type
  3712 ;;                  1    wreg      unsigned char 
  3713 ;; Registers used:
  3714 ;;		None
  3715 ;; Tracked objects:
  3716 ;;		On entry : 0/0
  3717 ;;		On exit  : 0/0
  3718 ;;		Unchanged: 0/0
  3719 ;; Data sizes:     COMRAM   BANK0   BANK1   BANK2   BANK3   BANK4   BANK5   BANK6   BANK7   BANK8   BANK9  BANK10  BANK1
      +1  BANK12  BANK13  BANK14  BANK15
  3720 ;;      Params:         0       0       0       0       0       0       0       0       0       0       0       0       
      +0       0       0       0       0
  3721 ;;      Locals:         0       0       0       0       0       0       0       0       0       0       0       0       
      +0       0       0       0       0
  3722 ;;      Temps:          0       0       0       0       0       0       0       0       0       0       0       0       
      +0       0       0       0       0
  3723 ;;      Totals:         0       0       0       0       0       0       0       0       0       0       0       0       
      +0       0       0       0       0
  3724 ;;Total ram usage:        0 bytes
  3725 ;; Hardware stack levels used: 1
  3726 ;; This function calls:
  3727 ;;		Nothing
  3728 ;; This function is called by:
  3729 ;;		__ISR
  3730 ;; This function uses a non-reentrant model
  3731 ;;
  3732                           
  3733                           	psect	text31
  3734   00194E                     __ptext31:
  3735                           	callstack 0
  3736   00194E                     _INT0_ISR:
  3737                           	callstack 26
  3738   00194E                     
  3739                           ;MCAL_layer/interrupt/mcal_external_interrupt.c: 832:      (INTCONbits.INT0IF = 0);
  3740   00194E  92F2               	bcf	242,1,c	;volatile
  3741   001950  0012               	return		;funcret
  3742   001952                     __end_of_INT0_ISR:
  3743                           	callstack 0
  3744                           
  3745 ;; *************** function _CCP2_ISR *****************
  3746 ;; Defined at:
  3747 ;;		line 416 in file "CCP.c"
  3748 ;; Parameters:    Size  Location     Type
  3749 ;;		None
  3750 ;; Auto vars:     Size  Location     Type
  3751 ;;		None
  3752 ;; Return value:  Size  Location     Type
  3753 ;;                  1    wreg      void 
  3754 ;; Registers used:
  3755 ;;		wreg, status,2, status,0, pcl, pclath, pclatu, tosl, cstack
  3756 ;; Tracked objects:
  3757 ;;		On entry : 0/0
  3758 ;;		On exit  : 0/0
  3759 ;;		Unchanged: 0/0
  3760 ;; Data sizes:     COMRAM   BANK0   BANK1   BANK2   BANK3   BANK4   BANK5   BANK6   BANK7   BANK8   BANK9  BANK10  BANK1
      +1  BANK12  BANK13  BANK14  BANK15
  3761 ;;      Params:         0       0       0       0       0       0       0       0       0       0       0       0       
      +0       0       0       0       0
  3762 ;;      Locals:         0       0       0       0       0       0       0       0       0       0       0       0       
      +0       0       0       0       0
  3763 ;;      Temps:          0       0       0       0       0       0       0       0       0       0       0       0       
      +0       0       0       0       0
  3764 ;;      Totals:         0       0       0       0       0       0       0       0       0       0       0       0       
      +0       0       0       0       0
  3765 ;;Total ram usage:        0 bytes
  3766 ;; Hardware stack levels used: 1
  3767 ;; Hardware stack levels required when called: 1
  3768 ;; This function calls:
  3769 ;;		NULL
  3770 ;;		_APP_CCP2_ISR
  3771 ;; This function is called by:
  3772 ;;		__ISR
  3773 ;; This function uses a non-reentrant model
  3774 ;;
  3775                           
  3776                           	psect	text32
  3777   001876                     __ptext32:
  3778                           	callstack 0
  3779   001876                     _CCP2_ISR:
  3780                           	callstack 25
  3781   001876                     
  3782                           ;CCP.c: 417:     PIR2bits.CCP2IF = 0;
  3783   001876  90A1               	bcf	161,0,c	;volatile
  3784   001878                     
  3785                           ;CCP.c: 418:     if(CCP2_InterruptHandler){
  3786   001878  5027               	movf	_CCP2_InterruptHandler^0,w,c
  3787   00187A  1028               	iorwf	(_CCP2_InterruptHandler+1)^0,w,c
  3788   00187C  B4D8               	btfsc	status,2,c
  3789   00187E  EF43  F00C         	goto	i2u56_41
  3790   001882  EF45  F00C         	goto	i2u56_40
  3791   001886                     i2u56_41:
  3792   001886  EF51  F00C         	goto	i2l627
  3793   00188A                     i2u56_40:
  3794   00188A                     
  3795                           ;CCP.c: 419:         CCP2_InterruptHandler();
  3796   00188A  D802               	call	i2u57_48
  3797   00188C  EF51  F00C         	goto	i2u57_49
  3798   001890                     i2u57_48:
  3799   001890  0005               	push	
  3800   001892  6EFA               	movwf	pclath,c
  3801   001894  5027               	movf	_CCP2_InterruptHandler^0,w,c
  3802   001896  6EFD               	movwf	tosl,c
  3803   001898  5028               	movf	(_CCP2_InterruptHandler+1)^0,w,c
  3804   00189A  6EFE               	movwf	tosh,c
  3805   00189C  6AFF               	clrf	tosu,c
  3806   00189E  50FA               	movf	pclath,w,c
  3807   0018A0  0012               	return		;indir
  3808   0018A2                     i2u57_49:
  3809   0018A2                     i2l627:
  3810   0018A2  0012               	return		;funcret
  3811   0018A4                     __end_of_CCP2_ISR:
  3812                           	callstack 0
  3813                           
  3814 ;; *************** function _APP_CCP2_ISR *****************
  3815 ;; Defined at:
  3816 ;;		line 39 in file "application.c"
  3817 ;; Parameters:    Size  Location     Type
  3818 ;;		None
  3819 ;; Auto vars:     Size  Location     Type
  3820 ;;		None
  3821 ;; Return value:  Size  Location     Type
  3822 ;;                  1    wreg      unsigned char 
  3823 ;; Registers used:
  3824 ;;		None
  3825 ;; Tracked objects:
  3826 ;;		On entry : 0/0
  3827 ;;		On exit  : 0/0
  3828 ;;		Unchanged: 0/0
  3829 ;; Data sizes:     COMRAM   BANK0   BANK1   BANK2   BANK3   BANK4   BANK5   BANK6   BANK7   BANK8   BANK9  BANK10  BANK1
      +1  BANK12  BANK13  BANK14  BANK15
  3830 ;;      Params:         0       0       0       0       0       0       0       0       0       0       0       0       
      +0       0       0       0       0
  3831 ;;      Locals:         0       0       0       0       0       0       0       0       0       0       0       0       
      +0       0       0       0       0
  3832 ;;      Temps:          0       0       0       0       0       0       0       0       0       0       0       0       
      +0       0       0       0       0
  3833 ;;      Totals:         0       0       0       0       0       0       0       0       0       0       0       0       
      +0       0       0       0       0
  3834 ;;Total ram usage:        0 bytes
  3835 ;; Hardware stack levels used: 1
  3836 ;; This function calls:
  3837 ;;		Nothing
  3838 ;; This function is called by:
  3839 ;;		_CCP2_ISR
  3840 ;; This function uses a non-reentrant model
  3841 ;;
  3842                           
  3843                           	psect	text33
  3844   00195E                     __ptext33:
  3845                           	callstack 0
  3846   00195E                     _APP_CCP2_ISR:
  3847                           	callstack 25
  3848   00195E  0012               	return		;funcret
  3849   001960                     __end_of_APP_CCP2_ISR:
  3850                           	callstack 0
  3851                           
  3852 ;; *************** function _CCP1_ISR *****************
  3853 ;; Defined at:
  3854 ;;		line 406 in file "CCP.c"
  3855 ;; Parameters:    Size  Location     Type
  3856 ;;		None
  3857 ;; Auto vars:     Size  Location     Type
  3858 ;;		None
  3859 ;; Return value:  Size  Location     Type
  3860 ;;                  1    wreg      void 
  3861 ;; Registers used:
  3862 ;;		None
  3863 ;; Tracked objects:
  3864 ;;		On entry : 0/0
  3865 ;;		On exit  : 0/0
  3866 ;;		Unchanged: 0/0
  3867 ;; Data sizes:     COMRAM   BANK0   BANK1   BANK2   BANK3   BANK4   BANK5   BANK6   BANK7   BANK8   BANK9  BANK10  BANK1
      +1  BANK12  BANK13  BANK14  BANK15
  3868 ;;      Params:         0       0       0       0       0       0       0       0       0       0       0       0       
      +0       0       0       0       0
  3869 ;;      Locals:         0       0       0       0       0       0       0       0       0       0       0       0       
      +0       0       0       0       0
  3870 ;;      Temps:          0       0       0       0       0       0       0       0       0       0       0       0       
      +0       0       0       0       0
  3871 ;;      Totals:         0       0       0       0       0       0       0       0       0       0       0       0       
      +0       0       0       0       0
  3872 ;;Total ram usage:        0 bytes
  3873 ;; Hardware stack levels used: 1
  3874 ;; This function calls:
  3875 ;;		Nothing
  3876 ;; This function is called by:
  3877 ;;		__ISR
  3878 ;; This function uses a non-reentrant model
  3879 ;;
  3880                           
  3881                           	psect	text34
  3882   001952                     __ptext34:
  3883                           	callstack 0
  3884   001952                     _CCP1_ISR:
  3885                           	callstack 26
  3886   001952                     
  3887                           ;CCP.c: 407:     PIR1bits.CCP1IF = 0;
  3888   001952  949E               	bcf	158,2,c	;volatile
  3889   001954  0012               	return		;funcret
  3890   001956                     __end_of_CCP1_ISR:
  3891                           	callstack 0
  3892                           
  3893 ;; *************** function _ADC_ISR *****************
  3894 ;; Defined at:
  3895 ;;		line 337 in file "MCAL_layer/ADC/ADC.c"
  3896 ;; Parameters:    Size  Location     Type
  3897 ;;		None
  3898 ;; Auto vars:     Size  Location     Type
  3899 ;;		None
  3900 ;; Return value:  Size  Location     Type
  3901 ;;                  1    wreg      unsigned char 
  3902 ;; Registers used:
  3903 ;;		None
  3904 ;; Tracked objects:
  3905 ;;		On entry : 0/0
  3906 ;;		On exit  : 0/0
  3907 ;;		Unchanged: 0/0
  3908 ;; Data sizes:     COMRAM   BANK0   BANK1   BANK2   BANK3   BANK4   BANK5   BANK6   BANK7   BANK8   BANK9  BANK10  BANK1
      +1  BANK12  BANK13  BANK14  BANK15
  3909 ;;      Params:         0       0       0       0       0       0       0       0       0       0       0       0       
      +0       0       0       0       0
  3910 ;;      Locals:         0       0       0       0       0       0       0       0       0       0       0       0       
      +0       0       0       0       0
  3911 ;;      Temps:          0       0       0       0       0       0       0       0       0       0       0       0       
      +0       0       0       0       0
  3912 ;;      Totals:         0       0       0       0       0       0       0       0       0       0       0       0       
      +0       0       0       0       0
  3913 ;;Total ram usage:        0 bytes
  3914 ;; Hardware stack levels used: 1
  3915 ;; This function calls:
  3916 ;;		Nothing
  3917 ;; This function is called by:
  3918 ;;		__ISR
  3919 ;; This function uses a non-reentrant model
  3920 ;;
  3921                           
  3922                           	psect	text35
  3923   001956                     __ptext35:
  3924                           	callstack 0
  3925   001956                     _ADC_ISR:
  3926                           	callstack 26
  3927   001956                     
  3928                           ;MCAL_layer/ADC/ADC.c: 340:     PIR1bits.ADIF = 0;
  3929   001956  9C9E               	bcf	158,6,c	;volatile
  3930   001958  0012               	return		;funcret
  3931   00195A                     __end_of_ADC_ISR:
  3932                           	callstack 0
  3933                           
  3934                           	psect	text36
  3935   000000                     __ptext36:
  3936                           	callstack 0
  3937   000000                     
  3938                           	psect	rparam
  3939   000000                     
  3940                           	psect	temp
  3941   00005C                     btemp:
  3942                           	callstack 0
  3943   00005C                     	ds	1
  3944   000000                     int$flags	set	btemp
  3945   000000                     wtemp8	set	btemp+1
  3946   000000                     ttemp5	set	btemp+1
  3947   000000                     ttemp6	set	btemp+4
  3948   000000                     ttemp7	set	btemp+8
  3949                           
  3950                           	psect	config
  3951                           
  3952                           ; Padding undefined space
  3953   300000                     	org	3145728
  3954   300000  FF                 	db	255
  3955                           
  3956                           ;Config register CONFIG1H @ 0x300001
  3957                           ;	Oscillator Selection bits
  3958                           ;	FOSC = HS, HS oscillator
  3959                           ;	Fail-Safe Clock Monitor Enable bit
  3960                           ;	FCMEN = OFF, Fail-Safe Clock Monitor disabled
  3961                           ;	Internal/External Oscillator Switchover bit
  3962                           ;	IESO = OFF, Oscillator Switchover mode disabled
  3963   300001                     	org	3145729
  3964   300001  02                 	db	2
  3965                           
  3966                           ;Config register CONFIG2L @ 0x300002
  3967                           ;	Power-up Timer Enable bit
  3968                           ;	PWRTEN = OFF, PWRT disabled
  3969                           ;	Brown-out Reset Enable bits
  3970                           ;	BOREN = OFF, Brown-out Reset disabled in hardware and software
  3971                           ;	Brown Out Reset Voltage bits
  3972                           ;	BORV = 18, VBOR set to 1.8 V nominal
  3973   300002                     	org	3145730
  3974   300002  19                 	db	25
  3975                           
  3976                           ;Config register CONFIG2H @ 0x300003
  3977                           ;	Watchdog Timer Enable bit
  3978                           ;	WDTEN = OFF, WDT is controlled by SWDTEN bit of the WDTCON register
  3979                           ;	Watchdog Timer Postscale Select bits
  3980                           ;	WDTPS = 32768, 1:32768
  3981   300003                     	org	3145731
  3982   300003  1E                 	db	30
  3983                           
  3984                           ; Padding undefined space
  3985   300004                     	org	3145732
  3986   300004  FF                 	db	255
  3987                           
  3988                           ;Config register CONFIG3H @ 0x300005
  3989                           ;	CCP2 MUX bit
  3990                           ;	CCP2MX = PORTC, CCP2 input/output is multiplexed with RC1
  3991                           ;	PORTB A/D Enable bit
  3992                           ;	PBADEN = OFF, PORTB<4:0> pins are configured as digital I/O on Reset
  3993                           ;	Low-Power Timer1 Oscillator Enable bit
  3994                           ;	LPT1OSC = OFF, Timer1 configured for higher power operation
  3995                           ;	HFINTOSC Fast Start-up
  3996                           ;	HFOFST = ON, HFINTOSC starts clocking the CPU without waiting for the oscillator to st
      +                          ablize.
  3997                           ;	MCLR Pin Enable bit
  3998                           ;	MCLRE = ON, MCLR pin enabled; RE3 input pin disabled
  3999   300005                     	org	3145733
  4000   300005  89                 	db	137
  4001                           
  4002                           ;Config register CONFIG4L @ 0x300006
  4003                           ;	Stack Full/Underflow Reset Enable bit
  4004                           ;	STVREN = ON, Stack full/underflow will cause Reset
  4005                           ;	Single-Supply ICSP Enable bit
  4006                           ;	LVP = OFF, Single-Supply ICSP disabled
  4007                           ;	Extended Instruction Set Enable bit
  4008                           ;	XINST = OFF, Instruction set extension and Indexed Addressing mode disabled (Legacy mo
      +                          de)
  4009                           ;	Background Debugger Enable bit
  4010                           ;	DEBUG = 0x1, unprogrammed default
  4011   300006                     	org	3145734
  4012   300006  81                 	db	129
  4013                           
  4014                           ; Padding undefined space
  4015   300007                     	org	3145735
  4016   300007  FF                 	db	255
  4017                           
  4018                           ;Config register CONFIG5L @ 0x300008
  4019                           ;	Code Protection Block 0
  4020                           ;	CP0 = OFF, Block 0 (000800-003FFFh) not code-protected
  4021                           ;	Code Protection Block 1
  4022                           ;	CP1 = OFF, Block 1 (004000-007FFFh) not code-protected
  4023                           ;	Code Protection Block 2
  4024                           ;	CP2 = OFF, Block 2 (008000-00BFFFh) not code-protected
  4025                           ;	Code Protection Block 3
  4026                           ;	CP3 = OFF, Block 3 (00C000-00FFFFh) not code-protected
  4027   300008                     	org	3145736
  4028   300008  0F                 	db	15
  4029                           
  4030                           ;Config register CONFIG5H @ 0x300009
  4031                           ;	Boot Block Code Protection bit
  4032                           ;	CPB = OFF, Boot block (000000-0007FFh) not code-protected
  4033                           ;	Data EEPROM Code Protection bit
  4034                           ;	CPD = OFF, Data EEPROM not code-protected
  4035   300009                     	org	3145737
  4036   300009  C0                 	db	192
  4037                           
  4038                           ;Config register CONFIG6L @ 0x30000A
  4039                           ;	Write Protection Block 0
  4040                           ;	WRT0 = OFF, Block 0 (000800-003FFFh) not write-protected
  4041                           ;	Write Protection Block 1
  4042                           ;	WRT1 = OFF, Block 1 (004000-007FFFh) not write-protected
  4043                           ;	Write Protection Block 2
  4044                           ;	WRT2 = OFF, Block 2 (008000-00BFFFh) not write-protected
  4045                           ;	Write Protection Block 3
  4046                           ;	WRT3 = OFF, Block 3 (00C000h-00FFFFh) not write-protected
  4047   30000A                     	org	3145738
  4048   30000A  0F                 	db	15
  4049                           
  4050                           ;Config register CONFIG6H @ 0x30000B
  4051                           ;	Configuration Register Write Protection bit
  4052                           ;	WRTC = OFF, Configuration registers (300000-3000FFh) not write-protected
  4053                           ;	Boot Block Write Protection bit
  4054                           ;	WRTB = OFF, Boot Block (000000-0007FFh) not write-protected
  4055                           ;	Data EEPROM Write Protection bit
  4056                           ;	WRTD = OFF, Data EEPROM not write-protected
  4057   30000B                     	org	3145739
  4058   30000B  E0                 	db	224
  4059                           
  4060                           ;Config register CONFIG7L @ 0x30000C
  4061                           ;	Table Read Protection Block 0
  4062                           ;	EBTR0 = OFF, Block 0 (000800-003FFFh) not protected from table reads executed in other
      +                           blocks
  4063                           ;	Table Read Protection Block 1
  4064                           ;	EBTR1 = OFF, Block 1 (004000-007FFFh) not protected from table reads executed in other
      +                           blocks
  4065                           ;	Table Read Protection Block 2
  4066                           ;	EBTR2 = OFF, Block 2 (008000-00BFFFh) not protected from table reads executed in other
      +                           blocks
  4067                           ;	Table Read Protection Block 3
  4068                           ;	EBTR3 = OFF, Block 3 (00C000-00FFFFh) not protected from table reads executed in other
      +                           blocks
  4069   30000C                     	org	3145740
  4070   30000C  0F                 	db	15
  4071                           
  4072                           ;Config register CONFIG7H @ 0x30000D
  4073                           ;	Boot Block Table Read Protection bit
  4074                           ;	EBTRB = OFF, Boot Block (000000-0007FFh) not protected from table reads executed in ot
      +                          her blocks
  4075   30000D                     	org	3145741
  4076   30000D  40                 	db	64
  4077                           tosu	equ	0xFFF
  4078                           tosh	equ	0xFFE
  4079                           tosl	equ	0xFFD
  4080                           stkptr	equ	0xFFC
  4081                           pclatu	equ	0xFFB
  4082                           pclath	equ	0xFFA
  4083                           pcl	equ	0xFF9
  4084                           tblptru	equ	0xFF8
  4085                           tblptrh	equ	0xFF7
  4086                           tblptrl	equ	0xFF6
  4087                           tablat	equ	0xFF5
  4088                           prodh	equ	0xFF4
  4089                           prodl	equ	0xFF3
  4090                           indf0	equ	0xFEF
  4091                           postinc0	equ	0xFEE
  4092                           postdec0	equ	0xFED
  4093                           preinc0	equ	0xFEC
  4094                           plusw0	equ	0xFEB
  4095                           fsr0h	equ	0xFEA
  4096                           fsr0l	equ	0xFE9
  4097                           wreg	equ	0xFE8
  4098                           indf1	equ	0xFE7
  4099                           postinc1	equ	0xFE6
  4100                           postdec1	equ	0xFE5
  4101                           preinc1	equ	0xFE4
  4102                           plusw1	equ	0xFE3
  4103                           fsr1h	equ	0xFE2
  4104                           fsr1l	equ	0xFE1
  4105                           bsr	equ	0xFE0
  4106                           indf2	equ	0xFDF
  4107                           postinc2	equ	0xFDE
  4108                           postdec2	equ	0xFDD
  4109                           preinc2	equ	0xFDC
  4110                           plusw2	equ	0xFDB
  4111                           fsr2h	equ	0xFDA
  4112                           fsr2l	equ	0xFD9
  4113                           status	equ	0xFD8

Data Sizes:
    Strings     3
    Constant    16
    Data        89
    BSS         55
    Persistent  0
    Stack       0

Auto Spaces:
    Space          Size  Autos    Used
    COMRAM           94     12      91
    BANK0           160      2      67
    BANK1           256      0       0
    BANK2           256      0       0
    BANK3           256      0       0
    BANK4           256      0       0
    BANK5           256      0       0
    BANK6           256      0       0
    BANK7           256      0       0
    BANK8           256      0       0
    BANK9           256      0       0
    BANK10          256      0       0
    BANK11          256      0       0
    BANK12          256      0       0
    BANK13          256      0       0
    BANK14          256      0       0
    BANK15           96      0       0

Pointer List with Targets:

    Adc_get_CONVERSION_result@my_ADC$ADC_INTERRUPT_HANDLER	PTR FTN()void  size(2) Largest target is 0

    Adc_init@my_ADC$ADC_INTERRUPT_HANDLER	PTR FTN()void  size(2) Largest target is 0

    ADC_INTERRUPT_HANDLER_CALL_BACK	PTR FTN()volatile unsigned char  size(2) Largest target is 1
		 -> NULL(), 

    Adc_Set_Result_Format@my_ADC$ADC_INTERRUPT_HANDLER	PTR FTN()void  size(2) Largest target is 0

    Adc_Set_VREF@my_ADC$ADC_INTERRUPT_HANDLER	PTR FTN()void  size(2) Largest target is 0

    CCP1_InterruptHandler	PTR FTN()void  size(2) Largest target is 1
		 -> NULL(), 

    ccp2$CCP1_InterruptHandler	PTR FTN()void  size(2) Largest target is 1
		 -> NULL(), 

    ccp2$CCP2_InterruptHandler	PTR FTN()void  size(2) Largest target is 1
		 -> APP_CCP2_ISR(), 

    CCP2_InterruptHandler	PTR FTN()void  size(2) Largest target is 1
		 -> APP_CCP2_ISR(), NULL(), 

    CCP_Capture_Mode_Config@_ccp_obj	PTR const struct . size(1) Largest target is 9
		 -> ccp2(BANK0[9]), 

    CCP_Capture_Mode_Config@_ccp_obj$CCP1_InterruptHandler	PTR FTN()void  size(2) Largest target is 1
		 -> NULL(), 

    CCP_Capture_Mode_Config@_ccp_obj$CCP2_InterruptHandler	PTR FTN()void  size(2) Largest target is 1
		 -> APP_CCP2_ISR(), 

    CCP_Compare_Mode_Config@_ccp_obj	PTR const struct . size(1) Largest target is 9
		 -> ccp2(BANK0[9]), 

    CCP_Compare_Mode_Config@_ccp_obj$CCP1_InterruptHandler	PTR FTN()void  size(2) Largest target is 1
		 -> NULL(), 

    CCP_Compare_Mode_Config@_ccp_obj$CCP2_InterruptHandler	PTR FTN()void  size(2) Largest target is 1
		 -> APP_CCP2_ISR(), 

    CCP_Compare_Mode_Set_Value@_ccp_obj$CCP1_InterruptHandler	PTR FTN()void  size(2) Largest target is 1
		 -> NULL(), 

    CCP_Compare_Mode_Set_Value@_ccp_obj$CCP2_InterruptHandler	PTR FTN()void  size(2) Largest target is 1
		 -> APP_CCP2_ISR(), 

    CCP_DeInit@_ccp_obj$CCP1_InterruptHandler	PTR FTN()void  size(2) Largest target is 1
		 -> NULL(), 

    CCP_DeInit@_ccp_obj$CCP2_InterruptHandler	PTR FTN()void  size(2) Largest target is 1
		 -> APP_CCP2_ISR(), 

    CCP_Init@_ccp_obj	PTR const struct . size(1) Largest target is 9
		 -> ccp2(BANK0[9]), 

    CCP_Init@_ccp_obj$CCP1_InterruptHandler	PTR FTN()void  size(2) Largest target is 1
		 -> NULL(), 

    CCP_Init@_ccp_obj$CCP2_InterruptHandler	PTR FTN()void  size(2) Largest target is 1
		 -> APP_CCP2_ISR(), 

    CCP_Interrupt_Config@_ccp_obj	PTR const struct . size(1) Largest target is 9
		 -> ccp2(BANK0[9]), 

    CCP_Interrupt_Config@_ccp_obj$CCP1_InterruptHandler	PTR FTN()void  size(2) Largest target is 1
		 -> NULL(), 

    CCP_Interrupt_Config@_ccp_obj$CCP2_InterruptHandler	PTR FTN()void  size(2) Largest target is 1
		 -> APP_CCP2_ISR(), 

    CCP_Mode_Timer_Select@_ccp_obj	PTR const struct . size(1) Largest target is 9
		 -> ccp2(BANK0[9]), 

    CCP_Mode_Timer_Select@_ccp_obj$CCP1_InterruptHandler	PTR FTN()void  size(2) Largest target is 1
		 -> NULL(), 

    CCP_Mode_Timer_Select@_ccp_obj$CCP2_InterruptHandler	PTR FTN()void  size(2) Largest target is 1
		 -> APP_CCP2_ISR(), 

    EXTERNAL_INTX_INTERRUPT_HANDLER@obj$EXTERNAL_INTX_callback	PTR FTN()unsigned char  size(2) Largest target is 0

    EXTERNAL_RBX_INTERRUPT_HANDLER@obj$EXTERNAL_RBX_callback_high	PTR FTN()unsigned char  size(2) Largest target is 0

    EXTERNAL_RBX_INTERRUPT_HANDLER@obj$EXTERNAL_RBX_callback_low	PTR FTN()unsigned char  size(2) Largest target is 0

    f$.$buffer	PTR unsigned char  size(2) Largest target is 0

    f$.$source	PTR const unsigned char  size(2) Largest target is 0

    gpio_pin_direction_initialize@pin	PTR const struct . size(1) Largest target is 9
		 -> ccp2(BANK0[9]), led_initialize@led_pin(COMRAM[1]), 

    gpio_pin_initialize@pin	PTR const struct . size(1) Largest target is 9
		 -> ccp2(BANK0[9]), led_initialize@led_pin(COMRAM[1]), 

    gpio_pin_write_logic@pin	PTR const struct . size(1) Largest target is 9
		 -> ccp2(BANK0[9]), led_initialize@led_pin(COMRAM[1]), led_OFF@led_pin(COMRAM[1]), led_ON@led_pin(COMRAM[1]), 

    INT0_INTERRUPT_HANDLER_CALL_BACK	PTR FTN()volatile unsigned char  size(2) Largest target is 1
		 -> NULL(), 

    INT1_INTERRUPT_HANDLER_CALL_BACK	PTR FTN()volatile unsigned char  size(2) Largest target is 1
		 -> NULL(), 

    INT2_INTERRUPT_HANDLER_CALL_BACK	PTR FTN()volatile unsigned char  size(2) Largest target is 1
		 -> NULL(), 

    Intx_Interrupts_clear_flag@obj$EXTERNAL_INTX_callback	PTR FTN()unsigned char  size(2) Largest target is 0

    Intx_Interrupts_deactivate_priority@obj$EXTERNAL_INTX_callback	PTR FTN()unsigned char  size(2) Largest target is 0

    Intx_Interrupts_Disable@obj$EXTERNAL_INTX_callback	PTR FTN()unsigned char  size(2) Largest target is 0

    Intx_Interrupts_Enable@obj$EXTERNAL_INTX_callback	PTR FTN()unsigned char  size(2) Largest target is 0

    Intx_Interrupts_Set_Edge@obj$EXTERNAL_INTX_callback	PTR FTN()unsigned char  size(2) Largest target is 0

    Intx_Interrupts_Set_Pin@obj$EXTERNAL_INTX_callback	PTR FTN()unsigned char  size(2) Largest target is 0

    LAT_REGESTERS	PTR volatile unsigned char [5] size(2) Largest target is 1
		 -> LATA(BITBIGSFRllllhl[1]), LATB(BITBIGSFRllllhh[1]), LATC(BITBIGSFRllllhh[1]), LATD(BITBIGSFRllllhh[1]), 
		 -> LATE(BITBIGSFRllllhh[1]), 

    PORT_REGESTERS	PTR volatile unsigned char [5] size(2) Largest target is 1
		 -> PORTA(BITBIGSFRllllhl[1]), PORTB(BITBIGSFRllllhl[1]), PORTC(BITBIGSFRllllhl[1]), PORTD(BITBIGSFRllllhl[1]), 
		 -> PORTE(BITBIGSFRllllhl[1]), 

    RB4_INTERRUPT_HANDLER_CALL_BACK_high	PTR FTN()volatile unsigned char  size(2) Largest target is 1
		 -> NULL(), 

    RB4_INTERRUPT_HANDLER_CALL_BACK_low	PTR FTN()volatile unsigned char  size(2) Largest target is 1
		 -> NULL(), 

    RB5_INTERRUPT_HANDLER_CALL_BACK_high	PTR FTN()volatile unsigned char  size(2) Largest target is 1
		 -> NULL(), 

    RB5_INTERRUPT_HANDLER_CALL_BACK_low	PTR FTN()volatile unsigned char  size(2) Largest target is 1
		 -> NULL(), 

    RB6_INTERRUPT_HANDLER_CALL_BACK_high	PTR FTN()volatile unsigned char  size(2) Largest target is 1
		 -> NULL(), 

    RB6_INTERRUPT_HANDLER_CALL_BACK_low	PTR FTN()volatile unsigned char  size(2) Largest target is 1
		 -> NULL(), 

    RB7_INTERRUPT_HANDLER_CALL_BACK_high	PTR FTN()volatile unsigned char  size(2) Largest target is 1
		 -> NULL(), 

    RB7_INTERRUPT_HANDLER_CALL_BACK_low	PTR FTN()volatile unsigned char  size(2) Largest target is 1
		 -> NULL(), 

    RBX_Interrupts_Enable@obj$EXTERNAL_RBX_callback_high	PTR FTN()unsigned char  size(2) Largest target is 0

    RBX_Interrupts_Enable@obj$EXTERNAL_RBX_callback_low	PTR FTN()unsigned char  size(2) Largest target is 0

    RBX_Interrupts_Set_Pin@obj$EXTERNAL_RBX_callback_high	PTR FTN()unsigned char  size(2) Largest target is 0

    RBX_Interrupts_Set_Pin@obj$EXTERNAL_RBX_callback_low	PTR FTN()unsigned char  size(2) Largest target is 0

    S1314$CCP1_InterruptHandler	PTR FTN()void  size(2) Largest target is 1
		 -> NULL(), 

    S1314$CCP2_InterruptHandler	PTR FTN()void  size(2) Largest target is 1
		 -> APP_CCP2_ISR(), 

    S1987$EXTERNAL_INTX_callback	PTR FTN()unsigned char  size(2) Largest target is 0

    S2029$EXTERNAL_RBX_callback_high	PTR FTN()unsigned char  size(2) Largest target is 0

    S2029$EXTERNAL_RBX_callback_low	PTR FTN()unsigned char  size(2) Largest target is 0

    S2824$TIMER0_INTERRUPT_HANDLER	PTR FTN()void  size(2) Largest target is 0

    S3003$TIMER1_INTERRUPT_HANDLER	PTR FTN()void  size(2) Largest target is 0

    S3257$TIMER2_INTERRUPT_HANDLER	PTR FTN()void  size(2) Largest target is 0

    S3453$TIMER3_INTERRUPT_HANDLER	PTR FTN()void  size(2) Largest target is 1
		 -> APP_TIMER3_ISR(), 

    S4224$buffer	PTR unsigned char  size(2) Largest target is 0

    S4224$source	PTR const unsigned char  size(2) Largest target is 0

    S829$ADC_INTERRUPT_HANDLER	PTR FTN()void  size(2) Largest target is 0

    sp__memset	PTR void  size(2) Largest target is 0

    TIMER0_init@my_TIMER0$TIMER0_INTERRUPT_HANDLER	PTR FTN()void  size(2) Largest target is 0

    TIMER0_INTERRUPT_HANDLER_CALL_BACK	PTR FTN()volatile unsigned char  size(2) Largest target is 1
		 -> NULL(), 

    TIMER0_Mode_Select@my_TIMER0$TIMER0_INTERRUPT_HANDLER	PTR FTN()void  size(2) Largest target is 0

    TIMER0_REGISTER_SIZE_Select@my_TIMER0$TIMER0_INTERRUPT_HANDLER	PTR FTN()void  size(2) Largest target is 0

    TIMER1_init@my_TIMER1$TIMER1_INTERRUPT_HANDLER	PTR FTN()void  size(2) Largest target is 0

    TIMER1_INTERRUPT_HANDLER_CALL_BACK	PTR FTN()volatile unsigned char  size(2) Largest target is 1
		 -> NULL(), 

    TIMER1_Mode_Select@my_TIMER1$TIMER1_INTERRUPT_HANDLER	PTR FTN()void  size(2) Largest target is 0

    TIMER1_REGISTER_SIZE_Select@my_TIMER1$TIMER1_INTERRUPT_HANDLER	PTR FTN()void  size(2) Largest target is 0

    TIMER1_Set_Prescaler@my_TIMER1$TIMER1_INTERRUPT_HANDLER	PTR FTN()void  size(2) Largest target is 0

    TIMER2_init@my_TIMER2$TIMER2_INTERRUPT_HANDLER	PTR FTN()void  size(2) Largest target is 0

    TIMER2_INTERRUPT_HANDLER_CALL_BACK	PTR FTN()volatile unsigned char  size(2) Largest target is 1
		 -> NULL(), 

    TIMER2_Set_POSTscaler@my_TIMER2$TIMER2_INTERRUPT_HANDLER	PTR FTN()void  size(2) Largest target is 0

    TIMER2_Set_Prescaler@my_TIMER2$TIMER2_INTERRUPT_HANDLER	PTR FTN()void  size(2) Largest target is 0

    timer3$TIMER3_INTERRUPT_HANDLER	PTR FTN()void  size(2) Largest target is 1
		 -> APP_TIMER3_ISR(), 

    TIMER3_init@my_TIMER3	PTR const struct . size(1) Largest target is 6
		 -> timer3(BANK0[6]), 

    TIMER3_init@my_TIMER3$TIMER3_INTERRUPT_HANDLER	PTR FTN()void  size(2) Largest target is 1
		 -> APP_TIMER3_ISR(), 

    TIMER3_INTERRUPT_HANDLER_CALL_BACK	PTR FTN()volatile unsigned char  size(2) Largest target is 1
		 -> APP_TIMER3_ISR(), NULL(), 

    TIMER3_Mode_Select@my_TIMER3	PTR const struct . size(1) Largest target is 6
		 -> timer3(BANK0[6]), 

    TIMER3_Mode_Select@my_TIMER3$TIMER3_INTERRUPT_HANDLER	PTR FTN()void  size(2) Largest target is 1
		 -> APP_TIMER3_ISR(), 

    TIMER3_REGISTER_SIZE_Select@my_TIMER3	PTR const struct . size(1) Largest target is 6
		 -> timer3(BANK0[6]), 

    TIMER3_REGISTER_SIZE_Select@my_TIMER3$TIMER3_INTERRUPT_HANDLER	PTR FTN()void  size(2) Largest target is 1
		 -> APP_TIMER3_ISR(), 

    TIMER3_Set_Prescaler@my_TIMER3	PTR const struct . size(1) Largest target is 6
		 -> timer3(BANK0[6]), 

    TIMER3_Set_Prescaler@my_TIMER3$TIMER3_INTERRUPT_HANDLER	PTR FTN()void  size(2) Largest target is 1
		 -> APP_TIMER3_ISR(), 

    TRIS_REGESTERS	PTR volatile unsigned char [5] size(2) Largest target is 1
		 -> TRISA(BITBIGSFRlllll[1]), TRISB(ABS[1]), TRISC(ABS[1]), TRISD(ABS[1]), 
		 -> TRISE(ABS[1]), 

    vfprintf$0	PTR struct _IO_FILE size(1) Largest target is 12
		 -> sprintf@f(COMRAM[12]), 

    vfprintf$1	PTR const unsigned char  size(1) Largest target is 3
		 -> STR_1(CODE[3]), STR_2(CODE[3]), STR_3(CODE[3]), 

    vfprintf$2	PTR PTR void  size(1) Largest target is 1
		 -> sprintf@ap(COMRAM[1]), 


Critical Paths under _main in COMRAM

    _TIMER3_init->_TIMER3_Set_Prescaler
    _CCP_Init->_gpio_pin_initialize
    _gpio_pin_initialize->_gpio_pin_direction_initialize
    _gpio_pin_initialize->_gpio_pin_write_logic
    _CCP_Compare_Mode_Config->_CCP_Mode_Timer_Select
    _CCP_Capture_Mode_Config->_CCP_Mode_Timer_Select

Critical Paths under __ISR in COMRAM

    __ISR->_RB4_ISR_high
    __ISR->_RB4_ISR_low
    __ISR->_RB5_ISR_high
    __ISR->_RB5_ISR_low
    __ISR->_RB6_ISR_high
    __ISR->_RB6_ISR_low
    __ISR->_RB7_ISR_high
    __ISR->_RB7_ISR_low

Critical Paths under _main in BANK0

    _main->_CCP_Init

Critical Paths under __ISR in BANK0

    None.

Critical Paths under _main in BANK1

    None.

Critical Paths under __ISR in BANK1

    None.

Critical Paths under _main in BANK2

    None.

Critical Paths under __ISR in BANK2

    None.

Critical Paths under _main in BANK3

    None.

Critical Paths under __ISR in BANK3

    None.

Critical Paths under _main in BANK4

    None.

Critical Paths under __ISR in BANK4

    None.

Critical Paths under _main in BANK5

    None.

Critical Paths under __ISR in BANK5

    None.

Critical Paths under _main in BANK6

    None.

Critical Paths under __ISR in BANK6

    None.

Critical Paths under _main in BANK7

    None.

Critical Paths under __ISR in BANK7

    None.

Critical Paths under _main in BANK8

    None.

Critical Paths under __ISR in BANK8

    None.

Critical Paths under _main in BANK9

    None.

Critical Paths under __ISR in BANK9

    None.

Critical Paths under _main in BANK10

    None.

Critical Paths under __ISR in BANK10

    None.

Critical Paths under _main in BANK11

    None.

Critical Paths under __ISR in BANK11

    None.

Critical Paths under _main in BANK12

    None.

Critical Paths under __ISR in BANK12

    None.

Critical Paths under _main in BANK13

    None.

Critical Paths under __ISR in BANK13

    None.

Critical Paths under _main in BANK14

    None.

Critical Paths under __ISR in BANK14

    None.

Critical Paths under _main in BANK15

    None.

Critical Paths under __ISR in BANK15

    None.

Call Graph Tables:

 ---------------------------------------------------------------------------------
 (Depth) Function   	        Calls       Base Space   Used Autos Params    Refs
 ---------------------------------------------------------------------------------
 (0) _main                                                 0     0      0    8306
                           _CCP_Init
                        _TIMER3_init
             _application_initialize
 ---------------------------------------------------------------------------------
 (1) _application_initialize                               0     0      0       0
                     _Ecu_initialize
 ---------------------------------------------------------------------------------
 (2) _Ecu_initialize                                       0     0      0       0
 ---------------------------------------------------------------------------------
 (1) _TIMER3_init                                          4     3      1     682
                                              5 COMRAM     3     2      1
                 _TIMER3_Mode_Select
        _TIMER3_REGISTER_SIZE_Select
               _TIMER3_Set_Prescaler
 ---------------------------------------------------------------------------------
 (2) _TIMER3_Set_Prescaler                                 3     2      1     128
                                              3 COMRAM     2     1      1
 ---------------------------------------------------------------------------------
 (2) _TIMER3_REGISTER_SIZE_Select                          2     1      1     150
                                              3 COMRAM     1     0      1
 ---------------------------------------------------------------------------------
 (2) _TIMER3_Mode_Select                                   2     1      1     144
                                              3 COMRAM     1     0      1
 ---------------------------------------------------------------------------------
 (1) _CCP_Init                                             3     2      1    7624
                                              0 BANK0      2     1      1
            _CCP_Capture_Mode_Config
            _CCP_Compare_Mode_Config
               _CCP_Interrupt_Config
                _gpio_pin_initialize
 ---------------------------------------------------------------------------------
 (2) _gpio_pin_initialize                                  2     1      1    6284
                                             10 COMRAM     2     1      1
      _gpio_pin_direction_initialize
               _gpio_pin_write_logic
 ---------------------------------------------------------------------------------
 (3) _gpio_pin_write_logic                                 8     6      2    4419
                                              3 COMRAM     7     5      2
 ---------------------------------------------------------------------------------
 (3) _gpio_pin_direction_initialize                        7     6      1     559
                                              3 COMRAM     7     6      1
 ---------------------------------------------------------------------------------
 (2) _CCP_Interrupt_Config                                 1     0      1     120
                                              3 COMRAM     1     0      1
 ---------------------------------------------------------------------------------
 (2) _CCP_Compare_Mode_Config                              4     3      1     407
                                              5 COMRAM     3     2      1
              _CCP_Mode_Timer_Select
 ---------------------------------------------------------------------------------
 (2) _CCP_Capture_Mode_Config                              4     3      1     429
                                              5 COMRAM     4     3      1
              _CCP_Mode_Timer_Select
 ---------------------------------------------------------------------------------
 (3) _CCP_Mode_Timer_Select                                2     1      1     218
                                              3 COMRAM     2     1      1
 ---------------------------------------------------------------------------------
 Estimated maximum stack depth 3
 ---------------------------------------------------------------------------------
 (Depth) Function   	        Calls       Base Space   Used Autos Params    Refs
 ---------------------------------------------------------------------------------
 (4) __ISR                                                 2     2      0       0
                                              1 COMRAM     2     2      0
                            _ADC_ISR
                           _CCP1_ISR
                           _CCP2_ISR
                           _INT0_ISR
                           _INT1_ISR
                           _INT2_ISR
                       _RB4_ISR_high
                        _RB4_ISR_low
                       _RB5_ISR_high
                        _RB5_ISR_low
                       _RB6_ISR_high
                        _RB6_ISR_low
                       _RB7_ISR_high
                        _RB7_ISR_low
                         _TIMER0_ISR
                         _TIMER1_ISR
                         _TIMER2_ISR
                         _TIMER3_ISR
 ---------------------------------------------------------------------------------
 (5) _TIMER3_ISR                                           0     0      0       0
                                NULL *
                     _APP_TIMER3_ISR *
 ---------------------------------------------------------------------------------
 (6) _APP_TIMER3_ISR                                       0     0      0       0
 ---------------------------------------------------------------------------------
 (5) _TIMER2_ISR                                           0     0      0       0
 ---------------------------------------------------------------------------------
 (5) _TIMER1_ISR                                           0     0      0       0
 ---------------------------------------------------------------------------------
 (5) _TIMER0_ISR                                           0     0      0       0
 ---------------------------------------------------------------------------------
 (5) _RB7_ISR_low                                          1     1      0       0
                                              0 COMRAM     1     1      0
 ---------------------------------------------------------------------------------
 (5) _RB7_ISR_high                                         1     1      0       0
                                              0 COMRAM     1     1      0
 ---------------------------------------------------------------------------------
 (5) _RB6_ISR_low                                          1     1      0       0
                                              0 COMRAM     1     1      0
 ---------------------------------------------------------------------------------
 (5) _RB6_ISR_high                                         1     1      0       0
                                              0 COMRAM     1     1      0
 ---------------------------------------------------------------------------------
 (5) _RB5_ISR_low                                          1     1      0       0
                                              0 COMRAM     1     1      0
 ---------------------------------------------------------------------------------
 (5) _RB5_ISR_high                                         1     1      0       0
                                              0 COMRAM     1     1      0
 ---------------------------------------------------------------------------------
 (5) _RB4_ISR_low                                          1     1      0       0
                                              0 COMRAM     1     1      0
 ---------------------------------------------------------------------------------
 (5) _RB4_ISR_high                                         1     1      0       0
                                              0 COMRAM     1     1      0
 ---------------------------------------------------------------------------------
 (5) _INT2_ISR                                             0     0      0       0
 ---------------------------------------------------------------------------------
 (5) _INT1_ISR                                             0     0      0       0
 ---------------------------------------------------------------------------------
 (5) _INT0_ISR                                             0     0      0       0
 ---------------------------------------------------------------------------------
 (5) _CCP2_ISR                                             0     0      0       0
                                NULL *
                       _APP_CCP2_ISR *
 ---------------------------------------------------------------------------------
 (6) _APP_CCP2_ISR                                         0     0      0       0
 ---------------------------------------------------------------------------------
 (6) NULL(Fake)                                            0     0      0       0
 ---------------------------------------------------------------------------------
 (5) _CCP1_ISR                                             0     0      0       0
 ---------------------------------------------------------------------------------
 (5) _ADC_ISR                                              0     0      0       0
 ---------------------------------------------------------------------------------
 Estimated maximum stack depth 6
 ---------------------------------------------------------------------------------

 Call Graph Graphs:

 _main (ROOT)
   _CCP_Init
     _CCP_Capture_Mode_Config
       _CCP_Mode_Timer_Select
     _CCP_Compare_Mode_Config
       _CCP_Mode_Timer_Select
     _CCP_Interrupt_Config
     _gpio_pin_initialize
       _gpio_pin_direction_initialize
       _gpio_pin_write_logic
   _TIMER3_init
     _TIMER3_Mode_Select
     _TIMER3_REGISTER_SIZE_Select
     _TIMER3_Set_Prescaler
   _application_initialize
     _Ecu_initialize

 __ISR (ROOT)
   _ADC_ISR
   _CCP1_ISR
   _CCP2_ISR
     NULL(Fake) *
     _APP_CCP2_ISR *
   _INT0_ISR
   _INT1_ISR
   _INT2_ISR
   _RB4_ISR_high
   _RB4_ISR_low
   _RB5_ISR_high
   _RB5_ISR_low
   _RB6_ISR_high
   _RB6_ISR_low
   _RB7_ISR_high
   _RB7_ISR_low
   _TIMER0_ISR
   _TIMER1_ISR
   _TIMER2_ISR
   _TIMER3_ISR
     NULL(Fake) *
     _APP_TIMER3_ISR *

 Address spaces:
Name               Size   Autos  Total    Cost      Usage
BIGRAM             F5F      0       0      50        0.0%
EEDATA             400      0       0       0        0.0%
BITBANK14          100      0       0      32        0.0%
BANK14             100      0       0      33        0.0%
BITBANK13          100      0       0      30        0.0%
BANK13             100      0       0      31        0.0%
BITBANK12          100      0       0      28        0.0%
BANK12             100      0       0      29        0.0%
BITBANK11          100      0       0      26        0.0%
BANK11             100      0       0      27        0.0%
BITBANK10          100      0       0      24        0.0%
BANK10             100      0       0      25        0.0%
BITBANK9           100      0       0      22        0.0%
BANK9              100      0       0      23        0.0%
BITBANK8           100      0       0      20        0.0%
BANK8              100      0       0      21        0.0%
BITBANK7           100      0       0      18        0.0%
BANK7              100      0       0      19        0.0%
BITBANK6           100      0       0      16        0.0%
BANK6              100      0       0      17        0.0%
BITBANK5           100      0       0      14        0.0%
BANK5              100      0       0      15        0.0%
BITBANK4           100      0       0      12        0.0%
BANK4              100      0       0      13        0.0%
BITBANK3           100      0       0      10        0.0%
BANK3              100      0       0      11        0.0%
BITBANK2           100      0       0       8        0.0%
BANK2              100      0       0       9        0.0%
BITBANK1           100      0       0       6        0.0%
BANK1              100      0       0       7        0.0%
BITBANK0            A0      0       0       4        0.0%
BANK0               A0      2      43       5       41.9%
BITBANK15           60      0       0      34        0.0%
BANK15              60      0       0      35        0.0%
BITCOMRAM           5E      0       0       0        0.0%
COMRAM              5E      C      5B       1       96.8%
BITBIGSFRlllll      1D      0       0      48        0.0%
BITBIGSFRhlhlhh     18      0       0      37        0.0%
BITBIGSFRhh          D      0       0      36        0.0%
BITBIGSFRllhllh      6      0       0      41        0.0%
BITBIGSFRllhllh      6      0       0      42        0.0%
BITBIGSFRlllhh       6      0       0      45        0.0%
BITBIGSFRhllll       5      0       0      40        0.0%
BITBIGSFRllllhh      4      0       0      46        0.0%
BITBIGSFRllhllh      4      0       0      43        0.0%
BITBIGSFRllllhl      4      0       0      47        0.0%
BITBIGSFRhlhll       4      0       0      38        0.0%
BITBIGSFRhlllh       1      0       0      39        0.0%
BITBIGSFRllhlll      1      0       0      44        0.0%
BIGSFR               0      0       0     200        0.0%
BITSFR               0      0       0     200        0.0%
SFR                  0      0       0     200        0.0%
STACK                0      0       0       2        0.0%
NULL                 0      0       0       0        0.0%
ABS                  0      0      9E      49        0.0%
DATA                 0      0      9E       3        0.0%
CODE                 0      0       0       0        0.0%


Microchip Technology PIC18 Macro Assembler V2.45 build 20230818022343 
Symbol Table                                                                                   Thu Jun 27 05:48:31 2024

   _TIMER0_INTERRUPT_HANDLER_CALL_BACK 000B                           ?_RB4_ISR_low 0050  
                   _TIMER3_Mode_Select 1716                                    l700 13C0  
                                  l348 195A                                    l605 1166  
                                  l614 1662                                    l535 1572  
                                  l608 17D8                                    l617 1662  
                                  l583 129A                                    l719 14C6  
                                  l765 1842                           ?_RB5_ISR_low 0050  
                      __end_of_ADC_ISR 195A                           ?_RB6_ISR_low 0050  
                  led_initialize@F3310 0031                                    tosl 0FFD  
                                  wreg 0FE8                           ?_RB7_ISR_low 0050  
                  ?_TIMER3_Mode_Select 0053                          ?_RB4_ISR_high 0050  
                                 l1430 1762                                   l1422 1874  
                                 l1438 1714                                   l1471 1944  
                                 l1465 18D8                                   l1394 1588  
                                 l1466 18D8                                   l1396 15F8  
                                 l4400 12D0                                   l4402 12D8  
                                 l4410 13BE                                   l4420 1614  
                                 l4404 132E                                   l4422 161C  
                                 l4430 1810                                   l4424 1636  
                                 l4600 10FA                                   l4408 137E  
                                 l4432 1824                                   l4426 163E  
                                 l4418 15FA                                   l4530 1192  
                                 l4522 1168                                   l4602 1106  
                                 l4434 182C                                   l4428 165A  
                                 l4532 119E                                   l4540 1202  
                                 l4524 116C                                   l4620 17AA  
                                 l4380 13D2                                   l4436 1840  
                                 l4550 1240                                   l4534 11AA  
                                 l4606 1112                                   l4630 17C4  
                                 l4622 17BC                                   l4390 149C  
                                 l4382 13F2                                   l4544 121C  
                                 l4536 11B6                                   l4528 1186  
                                 l4608 115E                                   l4624 17BE  
                                 l5600 14B0                                   l4384 13F6  
                                 l4640 1716                                   l4632 1844  
                                 l5610 126A                                   l4546 1228  
                                 l4554 124C                                   l4538 11BE  
                                 l4570 1016                                   l4626 17C0  
                                 l4618 17A0                                   l5602 13A8  
                                 l4386 144C                                   l4378 13C2  
                                 l5450 14C8                                   l4650 1760  
                                 l4642 1726                                   l4634 1854  
                                 l4548 1234                                   l4556 1290  
                                 l5604 108E                                   l4580 1048  
                                 l4572 1016                                   l4628 17C2  
                                 l4396 129C                                   l5460 1512  
                                 l5452 14DA                                   l4644 172A  
                                 l4660 16FA                                   l4652 16C8  
                                 l4636 1858                                   l4558 1298  
                                 l5606 1130                                   l4582 1054  
                                 l4590 10BC                                   l4398 12B0  
                                 l5470 155E                                   l5462 1516  
                                 l5454 14DE                                   l4646 1742  
                                 l4662 1712                                   l4654 16D8  
                                 l5608 11DC                                   l4584 1060  
                                 l4576 1030                                   l5472 156A  
                                 l5464 1530                                   l5456 14F4  
                                 l4648 1748                                   l4656 16DC  
                                 l4594 10D6                                   l4586 106C  
                                 l4578 103C                                   l5466 153C  
                                 l5458 14FC                                   l4658 16F4  
                                 l4770 158A                                   l5474 18C2  
                                 l4596 10E2                                   l4588 1070  
                                 l5468 1556                                   l4780 15E0  
                                 l4772 15A2                                   l5476 18C6  
                                 l4598 10EE                                   l4790 15F6  
                                 l4782 15E2                                   l4774 15BE  
                                 l4766 1574                                   l5478 18D0  
                                 l4784 15E4                                   l4776 15CC  
                                 l4768 1584                                   l4786 15E6  
                                 l4778 15DE                                   l4794 1940  
                                 l4788 15E8                                   STR_1 1011  
                                 _LED1 004F                                   _LED2 004E  
                                 _LED3 004D                                   _LED4 004C  
                                 u3100 102C                                   u3101 1028  
                                 _LATA 0F89                                   u3110 10D2  
                                 _LATB 0F8A                                   u3111 10CE  
                                 _LATC 0F8B                                   u4000 1512  
                                 u3120 1854                                   _LATD 0F8C  
                                 u4001 150E                                   u3121 1850  
                                 _LATE 0F8D                                   u4010 1530  
                                 u3130 1726                                   u4011 152C  
                                 u3131 1722                                   u4020 1556  
                                 u3140 1742                                   u4021 1552  
                                 u3141 173E                                   u3150 1760  
                                 u3151 175C                                   u3080 1182  
                                 u3160 16D8                                   u3081 117E  
                                 u3161 16D4                                   u3090 1218  
                                 u3170 16F4                                   u3091 1214  
                                 u3171 16F0                                   u3180 1712  
                                 u3340 1584                                   u3181 170E  
                                 u3341 1580                                   u2900 12D0  
                                 u2901 12CC                                   u2930 1394  
                                 u2914 12F6                                   u2850 13D2  
                                 u2931 138E                                   u2915 12F2  
                                 u2851 13CE                                   u2940 1396  
                                 u2924 134C                                   u2860 13F2  
                                 u2925 1348                                   u2861 13EE  
                                 u2950 1614                                   u2951 1610  
                                 u2960 1636                                   u2961 1632  
                                 u2970 165A                                   u2890 12B0  
                                 u2874 1414                                   u2971 1656  
                                 u2891 12AC                                   u2875 1410  
                                 u2884 146A                                   u2980 1824  
                                 u2885 1466                                   u2981 1820  
                                 u3980 14DA                                   u3981 14D6  
                                 u3990 14F4                                   u3991 14F0  
                        ?_RB5_ISR_high 0050                                   _TMR2 0FCC  
                                 __ISR 0008                                   _ccp2 008C  
            ??_CCP_Capture_Mode_Config 0056                                   _lcd1 0086  
                                 _lcd2 0074                                   _btn1 0045  
                                 _btn2 0042                                   _main 18C2  
                     __end_of_CCP1_ISR 1956    __end_of_TIMER3_REGISTER_SIZE_Select 1716  
          _TIMER3_REGISTER_SIZE_Select 16C8                       __end_of_CCP2_ISR 18A4  
                        ?_RB6_ISR_high 0050                                   fsr2h 0FDA  
                                 indf2 0FDF                                   fsr1l 0FE1  
                                 fsr2l 0FD9                                   btemp 005C  
                                 prodl 0FF3                                   start 03DE  
      __end_of_CCP_Compare_Mode_Config 1168                          ?_RB7_ISR_high 0050  
                     __end_of_CCP_Init 1574                   ??_TIMER3_Mode_Select 0054  
                         ___param_bank 0000                   _gpio_pin_write_logic 13C2  
                          ?_TIMER0_ISR 0050                            ?_TIMER1_ISR 0050  
                          ?_TIMER2_ISR 0050                            ?_TIMER3_ISR 0050  
                     __end_of_INT0_ISR 1952                       __end_of_INT1_ISR 194E  
                     __end_of_INT2_ISR 194A                                  ?__ISR 0050  
                        _LAT_REGESTERS 0032                                  ?_main 0050  
             ??_application_initialize 0053                                  _EEADR 0FA9  
                                _ANSEL 0F7E                                  i2l622 1954  
                                i2l482 1958                                  i2l627 18A2  
                                _TMR0H 0FD7                                  _TMR1H 0FCF  
                                _TMR0L 0FD6                                  _TMR1L 0FCE  
                                _TMR3H 0FB3                                  _TMR3L 0FB2  
                                _PORTA 0F80                                  _PORTB 0F81  
                                _PORTC 0F82                                  _PORTD 0F83  
                                _PORTE 0F84                                  _TRISA 0F92  
                                _TRISB 0F93                                  _TRISC 0F94  
                                _TRISD 0F95                                  _TRISE 0F96  
                       ??_RB4_ISR_high 0050                         ??_RB5_ISR_high 0050  
                                pclath 0FFA                                  pclatu 0FFB  
                                tablat 0FF5        CCP_Capture_Mode_Config@_ccp_obj 0055  
                       ??_RB6_ISR_high 0050                                  ttemp5 005D  
                                ttemp6 0060                                  ttemp7 0064  
                                status 0FD8                                  wtemp8 005D  
                 __end_of_APP_CCP2_ISR 1960                         ??_RB7_ISR_high 0050  
       ?_gpio_pin_direction_initialize 0053                           __end_of__ISR 03DE  
                      __initialization 1664    _RB4_INTERRUPT_HANDLER_CALL_BACK_low 001B  
  _RB5_INTERRUPT_HANDLER_CALL_BACK_low 0017    _RB6_INTERRUPT_HANDLER_CALL_BACK_low 0013  
  _RB7_INTERRUPT_HANDLER_CALL_BACK_low 000F                           __end_of_main 18E0  
                ?_gpio_pin_write_logic 0053                              ??_ADC_ISR 0050  
                _CCP_Mode_Timer_Select 15FA                                 ??__ISR 0051  
                               ??_main 005C                         _Ecu_initialize 195A  
                        __activetblptr 0003                           ?_TIMER3_init 0055  
                               _ADRESH 0FC4                                 _EEADRH 0FAA  
                               _ADRESL 0FC3                                 _EEDATA 0FA8  
                               _CCPR1H 0FBF                                 _CCPR2H 0FBC  
                               _CCPR1L 0FBE                                 _CCPR2L 0FBB  
                               _EECON2 0FA7                                 _ANSELH 0F7F  
     _INT1_INTERRUPT_HANDLER_CALL_BACK 0021                                 i2l1033 194C  
                               i2l1041 193E                                 i2l1029 1950  
                               i2l1037 1948                                 i2l1045 1936  
                               i2l1053 1926                                 i2l1061 1916  
                               i2l1141 00C2                                 i2l1151 0252  
                               i2l1143 0112                                 i2l1135 0032  
                               i2l1240 18F6                                 i2l1049 192E  
                               i2l1057 191E                                 i2l1065 190E  
                               i2l1161 0352                                 i2l1153 02A2  
                               i2l1145 0162                                 i2l1137 0052  
                               i2l1170 03D2                                 i2l1163 0372  
                               i2l1155 02F2                                 i2l1147 01B2  
                               i2l1139 0072                                 i2l1069 1906  
                               i2l1165 0392                                 i2l1157 0312  
                               i2l1149 0202                                 i2l1167 03B2  
                               i2l1159 0332                                 i2l4000 02CC  
                               i2l1417 180E                                 i2l1290 18EA  
                               i2l4010 030E                                 i2l4002 02DC  
                               i2l1460 195E                                 i2l4020 0360  
                               i2l4012 0320                                 i2l4004 02EA  
                               i2l1357 18FE                                 i2l4030 03AE  
                               i2l4022 036E                                 i2l4014 032E  
                               i2l4006 02EE                                 i2l2600 1878  
                               i2l4032 03C0                                 i2l4024 0380  
                               i2l4016 0340                                 i2l4008 0300  
                               i2l1457 195C                                 i2l2602 188A  
                               i2l4034 03CE                                 i2l4026 038E  
                               i2l4018 034E                                 i2l4028 03A0  
                               i2l2714 194E                                 i2l2722 1946  
                               i2l2730 1930                                 i2l2564 1956  
                               i2l2718 194A                                 i2l2726 1938  
                               i2l2734 1928                                 i2l2742 1918  
                               i2l2750 1908                                 i2l2592 1952  
                               i2l2760 18EE                                 i2l2738 1920  
                               i2l2746 1910                                 i2l2754 1900  
                               i2l2762 18F2                                 i2l2770 18E6  
                               i2l2780 17DC                                 i2l3900 0020  
                               i2l2598 1876                                 i2l2758 18EC  
                               i2l2766 18E0                                 i2l2774 18F8  
                               i2l2782 17E0                                 i2l3910 006E  
                               i2l3902 002E                                 i2l2768 18E2  
                               i2l2784 17E4                                 i2l3920 00BA  
                               i2l3912 0080                                 i2l3904 0040  
                               i2l2786 17F6                                 i2l2778 17DA  
                               i2l3930 00FC                                 i2l3922 00BE  
                               i2l3914 008E                                 i2l3906 004E  
                               i2l3940 013C                                 i2l3932 010A  
                               i2l3924 00D0                                 i2l3916 009C  
                               i2l3908 0060                                 i2l3950 017E  
                               i2l3942 014C                                 i2l3934 010E  
                               i2l3926 00DE                                 i2l3918 00AC  
                               i2l3960 01C0                                 i2l3952 018C  
                               i2l3944 015A                                 i2l3936 0120  
                               i2l3928 00EC                                 i2l3970 01FE  
                               i2l3962 01CE                                 i2l3954 019C  
                               i2l3946 015E                                 i2l3938 012E  
                               i2l3980 024A                                 i2l3972 0210  
                               i2l3964 01DC                                 i2l3956 01AA  
                               i2l3948 0170                                 i2l3990 028C  
                               i2l3982 024E                                 i2l3974 021E  
                               i2l3966 01EC                                 i2l3958 01AE  
                               i2l3992 029A                                 i2l3984 0260  
                               i2l3976 022C                                 i2l3968 01FA  
                               i2l3994 029E                                 i2l3986 026E  
                               i2l3978 023C                                 i2l3898 0012  
                               i2l3996 02B0                                 i2l3988 027C  
                               i2l3998 02BE                       RB7_ISR_low@dummy 0050  
         __end_of_TIMER3_Set_Prescaler 1876                 __end_of_Ecu_initialize 195C  
                               clear_0 16B8                                 _motor1 003F  
                               _motor2 003C                                 _timer3 0095  
                               isa$std 0001                              ?_CCP1_ISR 0050  
                         __pdataCOMRAM 0032                              ?_CCP2_ISR 0050  
                         __mediumconst 0000                                 tblptrh 0FF7  
                               tblptrl 0FF6                                 tblptru 0FF8  
                            ?_CCP_Init 00A1                      RB5_ISR_high@dummy 0050  
                           __accesstop 0060                __end_of__initialization 16BE  
                            ?_INT0_ISR 0050                              ?_INT1_ISR 0050  
                            ?_INT2_ISR 0050        _ADC_INTERRUPT_HANDLER_CALL_BACK 002B  
                        ___rparam_used 0001           CCP_Interrupt_Config@_ccp_obj 0053  
               ??_gpio_pin_write_logic 0055                         __pcstackCOMRAM 0050  
                 __end_of_RB4_ISR_high 1940   _RB4_INTERRUPT_HANDLER_CALL_BACK_high 001D  
 _RB5_INTERRUPT_HANDLER_CALL_BACK_high 0019   _RB6_INTERRUPT_HANDLER_CALL_BACK_high 0015  
 _RB7_INTERRUPT_HANDLER_CALL_BACK_high 0011                           __pidataBANK0 1764  
               ?_CCP_Mode_Timer_Select 0053           convert_short_to_string@F3462 009B  
                 __end_of_RB5_ISR_high 1930                        ?_Ecu_initialize 0050  
                 __end_of_RB6_ISR_high 1920                             ??_CCP1_ISR 0050  
                           ??_CCP2_ISR 0050                   __end_of_RB7_ISR_high 1910  
                           ??_CCP_Init 00A2                             __pbssBANK0 009B  
                           ??_INT0_ISR 0050                             ??_INT1_ISR 0050  
                           ??_INT2_ISR 0050                 _application_initialize 1940  
        TIMER3_Set_Prescaler@my_TIMER3 0053                      RB7_ISR_high@dummy 0050  
                         ??_TIMER0_ISR 0050                           ??_TIMER1_ISR 0050  
                         ??_TIMER2_ISR 0050                           ??_TIMER3_ISR 0050  
                              _ADC_ISR 1956                        led_toggle@F3325 002E  
                         _APP_CCP2_ISR 195E                                i2u70_48 17FC  
                              i2u70_49 180E                                i2u56_40 188A  
                              i2u56_41 1886                                i2u57_48 1890  
                              i2u57_49 18A2                                i2u69_40 17F6  
                              i2u69_41 17F2                   _TIMER3_Set_Prescaler 1844  
      CCP_Compare_Mode_Set_Value@F3548 0025                     __end_of_TIMER0_ISR 18F8  
                   __end_of_TIMER1_ISR 18EC                     __end_of_TIMER2_ISR 1900  
                   __end_of_TIMER3_ISR 1810                       RB4_ISR_low@dummy 0050  
                              __Hparam 0000                                __Lparam 0000  
   _TIMER3_INTERRUPT_HANDLER_CALL_BACK 0001           __end_of_CCP_Interrupt_Config 17DA  
                    fp__APP_TIMER3_ISR 0000                    _gpio_pin_initialize 1810  
      CCP_Compare_Mode_Config@_ccp_obj 0055                           __psmallconst 1000  
                              __pcinit 1664                                __ramtop 1000  
                              __ptext0 18C2                                __ptext1 1940  
                              __ptext2 195A                                __ptext3 1574  
                              __ptext4 1844                                __ptext5 16C8  
                              __ptext6 1716                                __ptext7 14C8  
                              __ptext8 1810                                __ptext9 13C2  
                            _T0CONbits 0FD5                              _T1CONbits 0FCD  
      ??_gpio_pin_direction_initialize 0054                              _T2CONbits 0FCA  
                            _T3CONbits 0FB1                _CCP_Compare_Mode_Config 1016  
                ?_TIMER3_Set_Prescaler 0053                   ?_gpio_pin_initialize 005A  
             ?_CCP_Capture_Mode_Config 0055                   end_of_initialization 16BE  
                              postdec1 0FE5                                postdec2 0FDD  
                              postinc0 0FEE                                postinc2 0FDE  
   _TIMER1_INTERRUPT_HANDLER_CALL_BACK 0007                              _PORTBbits 0F81  
                ??_gpio_pin_initialize 005B                           _RB4_ISR_high 1938  
                         _RB5_ISR_high 1928                            _CCP1CONbits 0FBD  
                     CCP_Init@_ccp_obj 00A1                            _CCP2CONbits 0FBA  
                         _RB6_ISR_high 1918                ??_CCP_Mode_Timer_Select 0054  
                         _RB7_ISR_high 1908             CCP_Capture_Mode_Config@ret 0058  
                     ??_Ecu_initialize 0053                          __pidataCOMRAM 18A4  
 TIMER3_REGISTER_SIZE_Select@my_TIMER3 0053                         _timer0_preload 000D  
                        ??_RB4_ISR_low 0050              ??_CCP_Compare_Mode_Config 0056  
                       _timer1_preload 0009                          ??_RB5_ISR_low 0050  
                       _timer2_preload 002D        __end_of_CCP_Capture_Mode_Config 129C  
                        ??_RB6_ISR_low 0050                         _PORT_REGESTERS 0060  
                  start_initialization 1664                         _timer3_preload 0003  
                        ??_RB7_ISR_low 0050                 ??_TIMER3_Set_Prescaler 0054  
          TIMER3_Mode_Select@my_TIMER3 0053  __end_of_gpio_pin_direction_initialize 13C2  
        _gpio_pin_direction_initialize 129C                   _CCP_Interrupt_Config 17A0  
              ?_application_initialize 0050           ?_TIMER3_REGISTER_SIZE_Select 0053  
                       _APP_TIMER3_ISR 195C                            __pdataBANK0 0060  
                             ?_ADC_ISR 0050                            __pbssCOMRAM 0001  
                        __pcstackBANK0 00A1         __end_of_application_initialize 1946  
                  __end_of_RB4_ISR_low 1938                  ?_CCP_Interrupt_Config 0053  
                  __end_of_RB5_ISR_low 1928       _INT2_INTERRUPT_HANDLER_CALL_BACK 001F  
                  __end_of_RB6_ISR_low 1918                    __end_of_RB7_ISR_low 1908  
                     RB5_ISR_low@dummy 0050                 __end_of_APP_TIMER3_ISR 195E  
        ??_TIMER3_REGISTER_SIZE_Select 0054                              __pintcode 0008  
                       _buttons_values 1001              gpio_pin_write_logic@logic 0054  
                          __smallconst 1000                          ??_TIMER3_init 0056  
                             _CCP1_ISR 1952                               _CCP2_ISR 1876  
        CCP_Mode_Timer_Select@_ccp_obj 0053                      RB4_ISR_high@dummy 0050  
                             _CCP_Init 14C8       _INT0_INTERRUPT_HANDLER_CALL_BACK 0023  
                             _RB4_FLAG 004B                               _RB5_FLAG 004A  
                             _RB6_FLAG 0049                               _RB7_FLAG 0048  
                             _INT0_ISR 194E                               _INT1_ISR 194A  
                             _INT2_ISR 1946                               _IOCBbits 0F7D  
                             _PIE1bits 0F9D                               _PIE2bits 0FA0  
           __end_of_TIMER3_Mode_Select 1764                        ?_APP_TIMER3_ISR 0050  
                 TIMER3_init@my_TIMER3 0055                               i2u200_40 00DE  
                             i2u200_41 00DA                               i2u201_40 00EC  
                             i2u201_41 00E8                               i2u210_40 017E  
                             i2u202_40 00FC                               i2u210_41 017A  
                             i2u202_41 00F8                               i2u211_40 018C  
                             i2u203_40 010A                               i2u211_41 0188  
                             i2u203_41 0106                               i2u220_40 021E  
                             i2u212_40 019C                               i2u204_40 0120  
                             i2u220_41 021A                               i2u212_41 0198  
                             i2u204_41 011C                               i2u221_40 022C  
                             i2u213_40 01AA                               i2u205_40 012E  
                             i2u221_41 0228                               i2u213_41 01A6  
                             i2u205_41 012A                               i2u230_40 02BE  
                             i2u222_40 023C                               i2u214_40 01C0  
                             i2u206_40 013C                               i2u230_41 02BA  
                             i2u222_41 0238                               i2u214_41 01BC  
                             i2u206_41 0138                               i2u231_40 02CC  
                             i2u223_40 024A                               i2u215_40 01CE  
                             i2u207_40 014C                               i2u231_41 02C8  
                             i2u223_41 0246                               i2u215_41 01CA  
                             i2u207_41 0148                               i2u240_40 0360  
                             i2u232_40 02DC                               i2u224_40 0260  
                             i2u216_40 01DC                               i2u208_40 015A  
                             i2u240_41 035C                               i2u232_41 02D8  
                             i2u224_41 025C                               i2u216_41 01D8  
                             i2u208_41 0156                               i2u241_40 036E  
                             i2u233_40 02EA                               i2u225_40 026E  
                             i2u217_40 01EC                               i2u209_40 0170  
                             i2u241_41 036A                               i2u233_41 02E6  
                             i2u225_41 026A                               i2u217_41 01E8  
                             i2u209_41 016C                               i2u242_40 0380  
                             i2u234_40 0300                               i2u226_40 027C  
                             i2u218_40 01FA                               i2u242_41 037C  
                             i2u234_41 02FC                               i2u226_41 0278  
                             i2u218_41 01F6                               i2u243_40 038E  
                             i2u235_40 030E                               i2u227_40 028C  
                             i2u219_40 0210                               i2u243_41 038A  
                             i2u235_41 030A                               i2u227_41 0288  
                             i2u219_41 020C                               i2u244_40 03A0  
                             i2u236_40 0320                               i2u228_40 029A  
                             i2u244_41 039C                               i2u236_41 031C  
                             i2u228_41 0296                               i2u245_40 03AE  
                             i2u237_40 032E                               i2u229_40 02B0  
                             i2u245_41 03AA                               i2u237_41 032A  
                             i2u229_41 02AC                               i2u246_40 03C0  
                             i2u238_40 0340                               i2u190_40 0040  
                             i2u246_41 03BC                               i2u238_41 033C  
                             i2u190_41 003C                               i2u247_40 03CE  
                             i2u239_40 034E                               i2u191_40 004E  
                             i2u247_41 03CA                               i2u239_41 034A  
                             i2u191_41 004A                               i2u192_40 0060  
                             i2u192_41 005C                               i2u193_40 006E  
                             i2u193_41 006A                               _PIR1bits 0F9E  
                             i2u194_40 0080                               i2u194_41 007C  
                             i2u195_40 008E                               i2u195_41 008A  
                             _PIR2bits 0FA1                               i2u196_40 009C  
                             i2u188_40 0020                               i2u196_41 0098  
                             i2u188_41 001C                               i2u197_40 00AC  
                             i2u189_40 002E                               i2u197_41 00A8  
                             i2u189_41 002A                               i2u198_40 00BA  
                             i2u198_41 00B6                               i2u199_40 00D0  
                             i2u199_41 00CC       gpio_pin_direction_initialize@RET 0059  
                             _RCONbits 0FD0                 __end_of_buttons_values 1011  
     gpio_pin_direction_initialize@pin 0053                             _ADCON0bits 0FC2  
                           _ADCON1bits 0FC1                             _ADCON2bits 0FC0  
                          _RB4_ISR_low 1930                            _RB5_ISR_low 1920  
               gpio_pin_initialize@RET 005B                            _RB6_ISR_low 1910  
               gpio_pin_initialize@pin 005A                 ??_CCP_Interrupt_Config 0054  
                          _RB7_ISR_low 1900                gpio_pin_write_logic@pin 0053  
                          _INTCON2bits 0FF1                            _INTCON3bits 0FF0  
                            copy_data0 1678                              copy_data1 1698  
                  __end_of_TIMER3_init 15FA                      RB6_ISR_high@dummy 0050  
                           _EECON1bits 0FA6                               __Hrparam 0000  
                             __Lrparam 0000          __end_of_CCP_Mode_Timer_Select 1664  
                      fp__APP_CCP2_ISR 0000                  _CCP1_InterruptHandler 0029  
          __end_of_gpio_pin_initialize 1844                               __ptext10 129C  
                             __ptext11 17A0                               __ptext20 18EC  
                             __ptext12 1016                               __ptext21 1900  
                             __ptext13 1168                               __ptext30 194A  
                             __ptext22 1908                               __ptext14 15FA  
                             __ptext31 194E                               __ptext23 1910  
                             __ptext32 1876                               __ptext24 1918  
                             __ptext16 17DA                               __ptext33 195E  
                             __ptext25 1920                               __ptext17 195C  
                             __ptext34 1952                               __ptext26 1928  
                             __ptext18 18F8                               __ptext35 1956  
                             __ptext27 1930                               __ptext19 18E0  
                             __ptext36 0000                               __ptext28 1938  
                             __ptext29 1946                           led_OFF@F3320 002F  
                             _keypad_1 007E                               isa$xinst 0000  
                             int$flags 005C                          ?_APP_CCP2_ISR 0050  
                           _INTCONbits 0FF2                            _TIMER3_init 1574  
         __end_of_gpio_pin_write_logic 14C8                               intlevel2 0000  
              _CCP_Capture_Mode_Config 1168                       RB6_ISR_low@dummy 0050  
                          led_ON@F3315 0030     _TIMER2_INTERRUPT_HANDLER_CALL_BACK 0005  
             ?_CCP_Compare_Mode_Config 0055                             _TIMER0_ISR 18EC  
                           _TIMER1_ISR 18E0                             _TIMER2_ISR 18F8  
                           _TIMER3_ISR 17DA                         ??_APP_CCP2_ISR 0050  
                _CCP2_InterruptHandler 0027                       ??_APP_TIMER3_ISR 0050  
                       _TRIS_REGESTERS 006A  
